Microsoft (R) COFF/PE Dumper Version 8.00.50727.42
Copyright (C) Microsoft Corporation.  All rights reserved.


Dump of file libvlc.dll

File Type: DLL

  Section contains the following exports for libvlc.dll

    00000000 characteristics
    474FD26C time date stamp Fri Nov 30 10:05:48 2007
        0.00 version
           1 ordinal base
        3807 number of functions
        3807 number of names

    ordinal hint RVA      name

          1    0 00057FF0 ACL_AddNet
          2    1 00057F50 ACL_Check
          3    2 000581D0 ACL_Destroy
          4    3 00058230 ACL_LoadFile
          5    4 000632B0 AddMD5
          6    5 0010B0D4 AddMember
          7    6 0010B0DA AddSender
          8    7 0006F300 CPUCapabilities
          9    8 000806A0 CompareReleaseToCurrent
         10    9 00080590 CompareReleases
         11    A 00277058 DELAY_SECOND
         12    B 00277050 DELAY_ZERO
         13    C 00077E40 DecodeLanguage
         14    D 00062B60 DigestMD5
         15    E 000B5210 EStoPES__mux_ts
         16    F 000633C0 EndMD5
         17   10 0006EF50 EnsureUTF8
         18   11 00062360 FindFallbackEncoding
         19   12 0007FBD0 FreeMirrorsList
         20   13 0007FC60 FreeReleasesList
         21   14 0006E170 FromLocale
         22   15 0006E2D0 FromLocaleDup
         23   16 0006F1D0 FromUTF16
         24   17 0006EF70 FromUTF32
         25   18 000A2A70 GenerateGuid__live555
         26   19 00062840 GetFallbackEncoding
         27   1A 00080840 GetFilesList
         28   1B 00077ED0 GetLang_1
         29   1C 00077F90 GetLang_2B
         30   1D 00077F30 GetLang_2T
         31   1E 0007FE20 GetMirrorsList
         32   1F 000976B0 I420_RGB16__i420_rgb_mmx
         33   20 000982D0 I420_RGB32__i420_rgb_mmx
         34   21 00063270 InitMD5
         35   22 0008FFC0 InitVLM
         36   23 0006EF60 IsUTF8
         37   24 0006E100 LocaleDeinit
         38   25 0006E470 LocaleFree
         39   26 0006DFE0 LocaleInit
         40   27 00029030 MRLSplit
         41   28 0010B0AC NewMember
         42   29 0010B0CA NewSender
         43   2A 0010B1D7 OnExpire
         44   2B 0010B336 OnReceive
         45   2C 0010B07C PacketType
         46   2D 000745C0 PicRelease
         47   2E 00177D00 RTPOverTCP_OK
         48   2F 0010B094 ReceivedPacketSize
         49   30 0026A6F4 ReceivingInterfaceAddr
         50   31 0010B0E0 RemoveMember
         51   32 0010B0F8 RemoveSender
         52   33 0010AFFE Reschedule
         53   34 0010AFE0 Schedule
         54   35 0010B034 SendBYEPacket
         55   36 0010B01C SendRTCPReport
         56   37 0026A6F0 SendingInterfaceAddr
         57   38 0010B064 SentPacketSize
         58   39 00277064 THE_END_OF_TIME
         59   3A 0006E2F0 ToLocale
         60   3B 0006E450 ToLocaleDup
         61   3C 0010B04C TypeOfEvent
         62   3D 0000D4F0 VLC_AddIntf
         63   3E 0000C160 VLC_AddTarget
         64   3F 0000B9E0 VLC_CleanUp
         65   40 0000B710 VLC_CompileBy
         66   41 0000B730 VLC_CompileDomain
         67   42 0000B720 VLC_CompileHost
         68   43 0000B740 VLC_Compiler
         69   44 0000B760 VLC_Create
         70   45 0000BCD0 VLC_Destroy
         71   46 0000B980 VLC_Die
         72   47 0000B750 VLC_Error
         73   48 0000D240 VLC_FullScreen
         74   49 0000E130 VLC_Init
         75   4A 0000C4C0 VLC_IsPlaying
         76   4B 0000CA10 VLC_LengthGet
         77   4C 0000C360 VLC_Pause
         78   4D 0000C2B0 VLC_Play
         79   4E 0000CFE0 VLC_PlaylistClear
         80   4F 0000CCE0 VLC_PlaylistIndex
         81   50 0000CE40 VLC_PlaylistNext
         82   51 0000CD90 VLC_PlaylistNumberOfItems
         83   52 0000CF10 VLC_PlaylistPrev
         84   53 0000C630 VLC_PositionGet
         85   54 0000C6F0 VLC_PositionSet
         86   55 0000CB00 VLC_SpeedFaster
         87   56 0000CBF0 VLC_SpeedSlower
         88   57 0000C410 VLC_Stop
         89   58 0000C7E0 VLC_TimeGet
         90   59 0000C8D0 VLC_TimeSet
         91   5A 0000BFD0 VLC_VariableGet
         92   5B 0000BE50 VLC_VariableSet
         93   5C 0000C050 VLC_VariableType
         94   5D 0000B700 VLC_Version
         95   5E 0000D150 VLC_VolumeGet
         96   5F 0000D1D0 VLC_VolumeMute
         97   60 0000D090 VLC_VolumeSet
         98   61 00095130 WMCOPYWNDPROC@16
         99   62 000F92DA _Z10SeekFile64P6_iobufxi
        100   63 000F9328 _Z10TellFile64P6_iobuf
        101   64 000D81B4 _Z10readSocketR16UsageEnvironmentiPhjR11sockaddr_inP7timeval
        102   65 000D7D90 _Z10strDupSizePKc
        103   66 000F9232 _Z11GetFileSizePKcP6_iobuf
        104   67 000D82BE _Z11writeSocketR16UsageEnvironmenti7in_addr4PorthPhj
        105   68 0012EE0C _Z12base64DecodePcRjj
        106   69 0012EF42 _Z12base64EncodePKcj
        107   6A 000D8B40 _Z12gettimeofdayP7timevalPi
        108   6B 000F9190 _Z13OpenInputFileR16UsageEnvironmentPKc
        109   6C 000D86EC _Z13getSourcePortR16UsageEnvironmentiR4Port
        110   6D 000F920E _Z14CloseInputFileP6_iobuf
        111   6E 000FEBE0 _Z14OpenOutputFileR16UsageEnvironmentPKc
        112   6F 000FEC96 _Z15CloseOutputFileP6_iobuf
        113   70 000F277A _Z15TranscodeMP3ADUPKhjjPhjRj
        114   71 000D826E _Z15readSocketExactR16UsageEnvironmentiPhjR11sockaddr_inP7timeval
        115   72 000D8438 _Z15setSendBufferToR16UsageEnvironmentij
        116   73 000D8514 _Z15socketJoinGroupR16UsageEnvironmentij
        117   74 000D8AFC _Z15timestampStringv
        118   75 000F17F0 _Z16ComputeFrameSizejjjjh
        119   76 000F3696 _Z16MP3HuffmanDecodePN11MP3SideInfo9gr_info_sEiPKhjjRjR22MP3HuffmanEncodingInfo
        120   77 000D8590 _Z16socketLeaveGroupR16UsageEnvironmentij
        121   78 000D83D4 _Z17getSendBufferSizeR16UsageEnvironmenti
        122   79 0010EAE6 _Z17radix_safe_sscanfPKcS0_z
        123   7A 000D7FA2 _Z17setupStreamSocketR16UsageEnvironment4Portj
        124   7B 000DD850 _Z17socketReadHandlerP6Socketi
        125   7C 000DD824 _Z18IsMulticastAddressj
        126   7D 000DFFB0 _Z18TimeRemainingUntilRK9EventTime
        127   7E 000F24EA _Z18ZeroOutMP3SideInfoPhjj
        128   7F 0010EA80 _Z18radix_safe_sprintfPcPKcz
        129   80 000D8454 _Z18setReceiveBufferToR16UsageEnvironmentij
        130   81 000D85DE _Z18socketJoinGroupSSMR16UsageEnvironmentijj
        131   82 000D7E14 _Z19setupDatagramSocketR16UsageEnvironment4Portj
        132   83 000D8648 _Z19socketLeaveGroupSSMR16UsageEnvironmentijj
        133   84 000D83EC _Z20getReceiveBufferSizeR16UsageEnvironmenti
        134   85 000D84DC _Z20increaseSendBufferToR16UsageEnvironmentij
        135   86 000D7F74 _Z21makeSocketNonBlockingi
        136   87 000EBF62 _Z21parseGeneralConfigStrPKcRj
        137   88 000F1922 _Z22GetADUInfoFromMP3FramePKhjRjS1_R11MP3SideInfoS1_S1_S1_
        138   89 00114060 _Z22parseRTSPRequestStringPKcjPcjS1_jS1_jS1_j
        139   8A 000D84F8 _Z23increaseReceiveBufferToR16UsageEnvironmentij
        140   8B 00102800 _Z23parseSPropParameterSetsPKcRj
        141   8C 000EBF20 _Z23parseStreamMuxConfigStrPKcRj
        142   8D 000EBD9C _Z23parseStreamMuxConfigStrPKcRjS1_RhS2_S2_RPhS1_
        143   8E 000F2BCC _Z24updateSideInfoForHuffmanR11MP3SideInfojPKhjjRjS3_S3_S3_S3_S3_S3_S3_
        144   8F 000D8ACA _Z26chooseRandomIPv4SSMAddressR16UsageEnvironment
        145   90 000D87D0 _Z28ourSourceAddressForMulticastR16UsageEnvironment
        146   91 000ECC32 _Z40samplingFrequencyFromAudioSpecificConfigPKc
        147   92 000D7D40 _Z6strDupPKc
        148   93 000DFF88 _Z7TimeNowv
        149   94 00100B4E _Z8seqNumLTtt
        150   95 0012D938 _Z9shiftBitsPhjPKhjj
        151   96 000DFE3A _ZN10DelayQueue11handleAlarmEv
        152   97 000DFD6E _ZN10DelayQueue11removeEntryEP15DelayQueueEntry
        153   98 000DFDB2 _ZN10DelayQueue11removeEntryEl
        154   99 000DFF02 _ZN10DelayQueue11synchronizeEv
        155   9A 000DFCFE _ZN10DelayQueue11updateEntryEP15DelayQueueEntry13DelayInterval
        156   9B 000DFD3E _ZN10DelayQueue11updateEntryEl13DelayInterval
        157   9C 000DFDD8 _ZN10DelayQueue15timeToNextAlarmEv
        158   9D 000DFEDE _ZN10DelayQueue16findEntryByTokenEl
        159   9E 000DFC98 _ZN10DelayQueue8addEntryEP15DelayQueueEntry
        160   9F 000DF9B2 _ZN10DelayQueueC1Ev
        161   A0 000DF8F4 _ZN10DelayQueueC2Ev
        162   A1 000DFBD8 _ZN10DelayQueueD0Ev
        163   A2 000DFB24 _ZN10DelayQueueD1Ev
        164   A3 000DFA70 _ZN10DelayQueueD2Ev
        165   A4 000DEBF4 _ZN10HandlerSet13assignHandlerEiPFvPviES0_
        166   A5 000DED06 _ZN10HandlerSet13removeHandlerEi
        167   A6 000DE952 _ZN10HandlerSetC1Ev
        168   A7 000DE92C _ZN10HandlerSetC2Ev
        169   A8 000DEB18 _ZN10HandlerSetD0Ev
        170   A9 000DEA48 _ZN10HandlerSetD1Ev
        171   AA 000DE978 _ZN10HandlerSetD2Ev
        172   AB 000DCE80 _ZN10NetAddress5cleanEv
        173   AC 000DCE32 _ZN10NetAddress6assignEPKhj
        174   AD 000DCCAE _ZN10NetAddressC1EPKhj
        175   AE 000DCD84 _ZN10NetAddressC1ERKS_
        176   AF 000DCD18 _ZN10NetAddressC1Ej
        177   B0 000DCC90 _ZN10NetAddressC2EPKhj
        178   B1 000DCD64 _ZN10NetAddressC2ERKS_
        179   B2 000DCCCC _ZN10NetAddressC2Ej
        180   B3 000DCE0C _ZN10NetAddressD0Ev
        181   B4 000DCDF2 _ZN10NetAddressD1Ev
        182   B5 000DCDD8 _ZN10NetAddressD2Ev
        183   B6 000DCDA4 _ZN10NetAddressaSERKS_
        184   B7 0010F58A _ZN10RTSPClient11describeURLEPKcP13Authenticatorj
        185   B8 0011325A _ZN10RTSPClient11getResponseEPKcRjS2_RPcS4_j
        186   B9 001130F4 _ZN10RTSPClient11sendRequestEPKcS1_j
        187   BA 00113358 _ZN10RTSPClient12getResponse1ERPcj
        188   BB 0010EC02 _ZN10RTSPClient12lookupByNameER16UsageEnvironmentPKcRPS_
        189   BC 00112972 _ZN10RTSPClient12parseRTSPURLER16UsageEnvironmentPKcR10NetAddressRtPS3_
        190   BD 001103C2 _ZN10RTSPClient14sendOptionsCmdEPKcPcS2_P13Authenticator
        191   BE 0010F480 _ZN10RTSPClient15resetTCPSocketsEv
        192   BF 00113A3E _ZN10RTSPClient16parseScaleHeaderEPKcRf
        193   C0 001112BC _ZN10RTSPClient16playMediaSessionER12MediaSessionfff
        194   C1 00113640 _ZN10RTSPClient17parseResponseCodeEPKcRj
        195   C2 00111750 _ZN10RTSPClient17pauseMediaSessionER12MediaSession
        196   C3 0011393E _ZN10RTSPClient18parseRTPInfoHeaderEPKcRjRtS2_
        197   C4 0010F07E _ZN10RTSPClient18setUserAgentStringEPKc
        198   C5 00113B82 _ZN10RTSPClient18setupHTTPTunnelingEPKcP13Authenticator
        199   C6 001114D0 _ZN10RTSPClient19playMediaSubsessionER15MediaSubsessionfffj
        200   C7 00110A4C _ZN10RTSPClient20announceWithPasswordEPKcS1_S1_S1_
        201   C8 00110254 _ZN10RTSPClient20describeWithPasswordEPKcS1_S1_j
        202   C9 00111888 _ZN10RTSPClient20pauseMediaSubsessionER15MediaSubsession
        203   CA 00110BB8 _ZN10RTSPClient20setupMediaSubsessionER15MediaSubsessionjjj
        204   CB 00112280 _ZN10RTSPClient20teardownMediaSessionER12MediaSession
        205   CC 001126D0 _ZN10RTSPClient21openConnectionFromURLEPKcP13Authenticator
        206   CD 00111A3C _ZN10RTSPClient21recordMediaSubsessionER15MediaSubsession
        207   CE 001108CC _ZN10RTSPClient22announceSDPDescriptionEPKcS1_P13Authenticator
        208   CF 0011084A _ZN10RTSPClient22constructSubsessionURLERK15MediaSubsessionRPKcS5_S5_
        209   D0 0011400C _ZN10RTSPClient22handleCmd_notSupportedEPKc
        210   D1 00113F1E _ZN10RTSPClient22incomingRequestHandlerEPvi
        211   D2 00113688 _ZN10RTSPClient22parseTransportResponseEPKcRPcRtRhS5_
        212   D3 00113F2E _ZN10RTSPClient23incomingRequestHandler1Ev
        213   D4 00113A8C _ZN10RTSPClient23parseGetParameterHeaderEPKcS1_RPc
        214   D5 00112514 _ZN10RTSPClient23teardownMediaSubsessionER15MediaSubsession
        215   D6 00111D44 _ZN10RTSPClient24getMediaSessionParameterER12MediaSessionPKcRPc
        216   D7 00111BCE _ZN10RTSPClient24setMediaSessionParameterER12MediaSessionPKcS3_
        217   D8 00112E1C _ZN10RTSPClient25createAuthenticatorStringEPK13AuthenticatorPKcS4_
        218   D9 00112D0C _ZN10RTSPClient28parseRTSPURLUsernamePasswordEPKcRPcS3_
        219   DA 00112FFA _ZN10RTSPClient29checkForAuthenticationFailureEjRPcP13Authenticator
        220   DB 00278330 _ZN10RTSPClient5fCSeqE
        221   DC 0010F4C6 _ZN10RTSPClient5resetEv
        222   DD 0010EB4C _ZN10RTSPClient9createNewER16UsageEnvironmentiPKct
        223   DE 0010EE76 _ZN10RTSPClientC1ER16UsageEnvironmentiPKct
        224   DF 0010EC6E _ZN10RTSPClientC2ER16UsageEnvironmentiPKct
        225   E0 0010F342 _ZN10RTSPClientD0Ev
        226   E1 0010F218 _ZN10RTSPClientD1Ev
        227   E2 0010F0EE _ZN10RTSPClientD2Ev
        228   E3 0010B638 _ZN10RTSPServer12lookupByNameER16UsageEnvironmentPKcRPS_
        229   E4 0010B876 _ZN10RTSPServer14setUpOurSocketER16UsageEnvironmentR4Port
        230   E5 0010E816 _ZN10RTSPServer17RTSPClientSession12noteLivenessEv
        231   E6 0010CACE _ZN10RTSPServer17RTSPClientSession13handleCmd_badEPKc
        232   E7 0010DD28 _ZN10RTSPServer17RTSPClientSession14handleCmd_PLAYEP21ServerMediaSubsessionPKcS4_
        233   E8 0010E2DE _ZN10RTSPServer17RTSPClientSession15handleCmd_PAUSEEP21ServerMediaSubsessionPKc
        234   E9 0010D0B4 _ZN10RTSPServer17RTSPClientSession15handleCmd_SETUPEPKcS2_S2_S2_
        235   EA 0010E60E _ZN10RTSPServer17RTSPClientSession16authenticationOKEPKcS2_S2_
        236   EB 0010CBC2 _ZN10RTSPServer17RTSPClientSession17handleCmd_OPTIONSEPKc
        237   EC 0010CBF6 _ZN10RTSPServer17RTSPClientSession18handleCmd_DESCRIBEEPKcS2_S2_
        238   ED 0010DC70 _ZN10RTSPServer17RTSPClientSession18handleCmd_TEARDOWNEP21ServerMediaSubsessionPKc
        239   EE 0010CB4E _ZN10RTSPServer17RTSPClientSession18handleCmd_notFoundEPKc
        240   EF 0010E870 _ZN10RTSPServer17RTSPClientSession18noteClientLivenessEPS0_
        241   F0 0010C6B6 _ZN10RTSPServer17RTSPClientSession18resetRequestBufferEv
        242   F1 0010E880 _ZN10RTSPServer17RTSPClientSession19livenessTimeoutTaskEPS0_
        243   F2 0010C636 _ZN10RTSPServer17RTSPClientSession19reclaimStreamStatesEv
        244   F3 0010CB0A _ZN10RTSPServer17RTSPClientSession22handleCmd_notSupportedEPKc
        245   F4 0010C6DC _ZN10RTSPServer17RTSPClientSession22incomingRequestHandlerEPvi
        246   F5 0010E36A _ZN10RTSPServer17RTSPClientSession23handleCmd_GET_PARAMETEREP21ServerMediaSubsessionPKcS4_
        247   F6 0010D9BE _ZN10RTSPServer17RTSPClientSession23handleCmd_withinSessionEPKcS2_S2_S2_S2_
        248   F7 0010C6EC _ZN10RTSPServer17RTSPClientSession23incomingRequestHandler1Ev
        249   F8 0010CB88 _ZN10RTSPServer17RTSPClientSession30handleCmd_unsupportedTransportEPKc
        250   F9 0010C12E _ZN10RTSPServer17RTSPClientSessionC1ERS_ji11sockaddr_in
        251   FA 0010BFDA _ZN10RTSPServer17RTSPClientSessionC2ERS_ji11sockaddr_in
        252   FB 0010C4F2 _ZN10RTSPServer17RTSPClientSessionD0Ev
        253   FC 0010C3BA _ZN10RTSPServer17RTSPClientSessionD1Ev
        254   FD 0010C282 _ZN10RTSPServer17RTSPClientSessionD2Ev
        255   FE 0010B6A4 _ZN10RTSPServer21addServerMediaSessionEP18ServerMediaSession
        256   FF 0010B6E0 _ZN10RTSPServer24lookupServerMediaSessionEPKc
        257  100 0010B6FA _ZN10RTSPServer24removeServerMediaSessionEP18ServerMediaSession
        258  101 0010B740 _ZN10RTSPServer24removeServerMediaSessionEPKc
        259  102 0010BE76 _ZN10RTSPServer25incomingConnectionHandlerEPvi
        260  103 0010BE86 _ZN10RTSPServer26incomingConnectionHandler1Ev
        261  104 0010B530 _ZN10RTSPServer9createNewER16UsageEnvironment4PortP26UserAuthenticationDatabasej
        262  105 0010BA12 _ZN10RTSPServerC1ER16UsageEnvironmenti4PortP26UserAuthenticationDatabasej
        263  106 0010B912 _ZN10RTSPServerC2ER16UsageEnvironmenti4PortP26UserAuthenticationDatabasej
        264  107 0010BD46 _ZN10RTSPServerD0Ev
        265  108 0010BC2C _ZN10RTSPServerD1Ev
        266  109 0010BB12 _ZN10RTSPServerD2Ev
        267  10A 000D9C52 _ZN10destRecordC1ERK7in_addrRK4PorthPS_
        268  10B 000D9B42 _ZN10destRecordC2ERK7in_addrRK4PorthPS_
        269  10C 000D9EE6 _ZN10destRecordD0Ev
        270  10D 000D9E24 _ZN10destRecordD1Ev
        271  10E 000D9D62 _ZN10destRecordD2Ev
        272  10F 0012933E _ZN11AVIFileSink11addHalfWordEt
        273  110 001293A2 _ZN11AVIFileSink12addZeroWordsEj
        274  111 001282BE _ZN11AVIFileSink12startPlayingEPFvPvES0_
        275  112 001293DC _ZN11AVIFileSink14add4ByteStringEPKc
        276  113 00128304 _ZN11AVIFileSink15continuePlayingEv
        277  114 0012848E _ZN11AVIFileSink15onSourceClosureEPv
        278  115 0012849E _ZN11AVIFileSink16onSourceClosure1Ev
        279  116 00129526 _ZN11AVIFileSink17addFileHeader_AVIEv
        280  117 00128474 _ZN11AVIFileSink17afterGettingFrameEPvjj7timevalj
        281  118 00129D4A _ZN11AVIFileSink18addFileHeader_JUNKEv
        282  119 001297C0 _ZN11AVIFileSink18addFileHeader_avihEv
        283  11A 00129596 _ZN11AVIFileSink18addFileHeader_hdrlEv
        284  11B 00129E3E _ZN11AVIFileSink18addFileHeader_moviEv
        285  11C 00129AE6 _ZN11AVIFileSink18addFileHeader_strfEv
        286  11D 00129964 _ZN11AVIFileSink18addFileHeader_strhEv
        287  11E 001298E6 _ZN11AVIFileSink18addFileHeader_strlEv
        288  11F 00128652 _ZN11AVIFileSink18completeOutputFileEv
        289  120 00129288 _ZN11AVIFileSink7addWordEj
        290  121 001294A6 _ZN11AVIFileSink7setWordEjj
        291  122 001281B8 _ZN11AVIFileSink9createNewER16UsageEnvironmentR12MediaSessionPKcjttjj
        292  123 001285BC _ZN11AVIFileSink9onRTCPByeEPv
        293  124 00127BE2 _ZN11AVIFileSinkC1ER16UsageEnvironmentR12MediaSessionP6_iobufjttjj
        294  125 00127990 _ZN11AVIFileSinkC2ER16UsageEnvironmentR12MediaSessionP6_iobufjttjj
        295  126 00128084 _ZN11AVIFileSinkD0Ev
        296  127 00127F5C _ZN11AVIFileSinkD1Ev
        297  128 00127E34 _ZN11AVIFileSinkD2Ev
        298  129 0012B298 _ZN11IndexRecord6unlinkEv
        299  12A 0012B27A _ZN11IndexRecord8addAfterEPS_
        300  12B 0012B192 _ZN11IndexRecordC1Ehhmf
        301  12C 0012B15E _ZN11IndexRecordC2Ehhmf
        302  12D 0012B236 _ZN11IndexRecordD0Ev
        303  12E 0012B1FE _ZN11IndexRecordD1Ev
        304  12F 0012B1C6 _ZN11IndexRecordD2Ev
        305  130 000E12E8 _ZN11MediaSource12lookupByNameER16UsageEnvironmentPKcRPS_
        306  131 000E1212 _ZN11MediaSourceC1ER16UsageEnvironment
        307  132 000E11F0 _ZN11MediaSourceC2ER16UsageEnvironment
        308  133 000E1268 _ZN11MediaSourceD0Ev
        309  134 000E124E _ZN11MediaSourceD1Ev
        310  135 000E1234 _ZN11MediaSourceD2Ev
        311  136 0011D864 _ZN11StreamState10endPlayingEP12Destinations
        312  137 0011D6AC _ZN11StreamState12startPlayingEP12DestinationsPFvPvES2_
        313  138 0011D824 _ZN11StreamState5pauseEv
        314  139 0011D956 _ZN11StreamState7reclaimEv
        315  13A 0011D5EA _ZN11StreamStateC1ERK4PortS2_P7RTPSinkP12BasicUDPSinkfjPcP12FramedSourceP9GroupsockSB_
        316  13B 0011D582 _ZN11StreamStateC2ERK4PortS2_P7RTPSinkP12BasicUDPSinkfjPcP12FramedSourceP9GroupsockSB_
        317  13C 0011D686 _ZN11StreamStateD0Ev
        318  13D 0011D66C _ZN11StreamStateD1Ev
        319  13E 0011D652 _ZN11StreamStateD2Ev
        320  13F 00144AE0 _ZN12AlarmHandler13handleTimeoutEv
        321  140 00144B00 _ZN12AlarmHandlerD0Ev
        322  141 00144B30 _ZN12AlarmHandlerD1Ev
        323  142 00108426 _ZN12AudioRTPSinkC1ER16UsageEnvironmentP9GroupsockhjPKcj
        324  143 001083F0 _ZN12AudioRTPSinkC2ER16UsageEnvironmentP9GroupsockhjPKcj
        325  144 00108490 _ZN12AudioRTPSinkD0Ev
        326  145 00108476 _ZN12AudioRTPSinkD1Ev
        327  146 0010845C _ZN12AudioRTPSinkD2Ev
        328  147 000FA44E _ZN12BasicUDPSink15continuePlayingEv
        329  148 000FA476 _ZN12BasicUDPSink16continuePlaying1Ev
        330  149 000FA4A8 _ZN12BasicUDPSink17afterGettingFrameEPvjj7timevalj
        331  14A 000FA4C2 _ZN12BasicUDPSink18afterGettingFrame1Ejjj
        332  14B 000FA5E0 _ZN12BasicUDPSink8sendNextEPv
        333  14C 000FA180 _ZN12BasicUDPSink9createNewER16UsageEnvironmentP9Groupsockj
        334  14D 000FA2E4 _ZN12BasicUDPSinkC1ER16UsageEnvironmentP9Groupsockj
        335  14E 000FA224 _ZN12BasicUDPSinkC2ER16UsageEnvironmentP9Groupsockj
        336  14F 000FA410 _ZN12BasicUDPSinkD0Ev
        337  150 000FA3DA _ZN12BasicUDPSinkD1Ev
        338  151 000FA3A4 _ZN12BasicUDPSinkD2Ev
        339  152 000E2ED8 _ZN12DeviceSource12deliverFrameEv
        340  153 000E2ED2 _ZN12DeviceSource14doGetNextFrameEv
        341  154 000E2D90 _ZN12DeviceSource9createNewER16UsageEnvironment16DeviceParameters
        342  155 000E2E56 _ZN12DeviceSourceC1ER16UsageEnvironment16DeviceParameters
        343  156 000E2E34 _ZN12DeviceSourceC2ER16UsageEnvironment16DeviceParameters
        344  157 000E2EAC _ZN12DeviceSourceD0Ev
        345  158 000E2E92 _ZN12DeviceSourceD1Ev
        346  159 000E2E78 _ZN12DeviceSourceD2Ev
        347  15A 000FF8DC _ZN12EndianSwap1614doGetNextFrameEv
        348  15B 000FF902 _ZN12EndianSwap1617afterGettingFrameEPvjj7timevalj
        349  15C 000FF922 _ZN12EndianSwap1618afterGettingFrame1Ejj7timevalj
        350  15D 000FF79A _ZN12EndianSwap169createNewER16UsageEnvironmentP12FramedSource
        351  15E 000FF85E _ZN12EndianSwap16C1ER16UsageEnvironmentP12FramedSource
        352  15F 000FF83A _ZN12EndianSwap16C2ER16UsageEnvironmentP12FramedSource
        353  160 000FF8B6 _ZN12EndianSwap16D0Ev
        354  161 000FF89C _ZN12EndianSwap16D1Ev
        355  162 000FF882 _ZN12EndianSwap16D2Ev
        356  163 000E1940 _ZN12FramedFilter19doStopGettingFramesEv
        357  164 000E16C8 _ZN12FramedFilterC1ER16UsageEnvironmentP12FramedSource
        358  165 000E16A0 _ZN12FramedFilterC2ER16UsageEnvironmentP12FramedSource
        359  166 000E1848 _ZN12FramedFilterD0Ev
        360  167 000E179C _ZN12FramedFilterD1Ev
        361  168 000E16F0 _ZN12FramedFilterD2Ev
        362  169 000E1570 _ZN12FramedSource12afterGettingEPS_
        363  16A 000E14E4 _ZN12FramedSource12getNextFrameEPhjPFvPvjj7timevaljES1_PFvS1_ES1_
        364  16B 000E1478 _ZN12FramedSource12lookupByNameER16UsageEnvironmentPKcRPS_
        365  16C 000E15A4 _ZN12FramedSource13handleClosureEPv
        366  16D 000E15C8 _ZN12FramedSource17stopGettingFramesEv
        367  16E 000E15E0 _ZN12FramedSource19doStopGettingFramesEv
        368  16F 000E13C2 _ZN12FramedSourceC1ER16UsageEnvironment
        369  170 000E1370 _ZN12FramedSourceC2ER16UsageEnvironment
        370  171 000E1448 _ZN12FramedSourceD0Ev
        371  172 000E142E _ZN12FramedSourceD1Ev
        372  173 000E1414 _ZN12FramedSourceD2Ev
        373  174 000EEB68 _ZN12InterleavingC1EjPKh
        374  175 000EEB30 _ZN12InterleavingC2EjPKh
        375  176 000EEBBC _ZN12InterleavingD0Ev
        376  177 000EEBAE _ZN12InterleavingD1Ev
        377  178 000EEBA0 _ZN12InterleavingD2Ev
        378  179 00116F74 _ZN12MediaSession12lookupByNameER16UsageEnvironmentPKcRPS_
        379  17A 00117D70 _ZN12MediaSession12parseSDPLineEPKcRS1_
        380  17B 00117F7C _ZN12MediaSession14parseSDPLine_cEPKc
        381  17C 00117F02 _ZN12MediaSession14parseSDPLine_iEPKc
        382  17D 00117E88 _ZN12MediaSession14parseSDPLine_sEPKc
        383  17E 0011761E _ZN12MediaSession17initializeWithSDPEPKc
        384  17F 001184EE _ZN12MediaSession19initiateByMediaTypeEPKcRP15MediaSubsessioni
        385  180 00118212 _ZN12MediaSession19lookupPayloadFormatEhRjS0_
        386  181 00117FC0 _ZN12MediaSession22parseSDPAttribute_typeEPKc
        387  182 00118060 _ZN12MediaSession23parseSDPAttribute_rangeEPKc
        388  183 00118444 _ZN12MediaSession26guessRTPTimestampFrequencyEPKcS1_
        389  184 001181FA _ZN12MediaSession31parseSDPAttribute_source_filterEPKc
        390  185 00116E90 _ZN12MediaSession9createNewER16UsageEnvironmentPKc
        391  186 00117130 _ZN12MediaSessionC1ER16UsageEnvironment
        392  187 00116FE0 _ZN12MediaSessionC2ER16UsageEnvironment
        393  188 001174DC _ZN12MediaSessionD0Ev
        394  189 001173AE _ZN12MediaSessionD1Ev
        395  18A 00117280 _ZN12MediaSessionD2Ev
        396  18B 0026A770 _ZN12NetInterface23DefaultUsageEnvironmentE
        397  18C 000DC3E4 _ZN12NetInterfaceC1Ev
        398  18D 000DC3D6 _ZN12NetInterfaceC2Ev
        399  18E 000DC40E _ZN12NetInterfaceD0Ev
        400  18F 000DC400 _ZN12NetInterfaceD1Ev
        401  190 000DC3F2 _ZN12NetInterfaceD2Ev
        402  191 000D9B38 _ZN12OutputSocket10handleReadEPhjRjR11sockaddr_in
        403  192 000D9A60 _ZN12OutputSocket5writeEj4PorthPhj
        404  193 000D97A6 _ZN12OutputSocketC1ER16UsageEnvironment
        405  194 000D993E _ZN12OutputSocketC1ER16UsageEnvironment4Port
        406  195 000D96D6 _ZN12OutputSocketC2ER16UsageEnvironment
        407  196 000D9876 _ZN12OutputSocketC2ER16UsageEnvironment4Port
        408  197 000D9A3A _ZN12OutputSocketD0Ev
        409  198 000D9A20 _ZN12OutputSocketD1Ev
        410  199 000D9A06 _ZN12OutputSocketD2Ev
        411  19A 0010A844 _ZN12RTCPInstance10removeSSRCEjj
        412  19B 0010AE62 _ZN12RTCPInstance10rescheduleEd
        413  19C 0010A6E0 _ZN12RTCPInstance10sendReportEv
        414  19D 0010A7C8 _ZN12RTCPInstance12checkNewSSRCEv
        415  19E 00109EA8 _ZN12RTCPInstance12lookupByNameER16UsageEnvironmentPKcRPS_
        416  19F 00109F7C _ZN12RTCPInstance12setRRHandlerEPFvPvES0_
        417  1A0 00109F62 _ZN12RTCPInstance12setSRHandlerEPFvPvES0_
        418  1A1 00109F3E _ZN12RTCPInstance13setByeHandlerEPFvPvES0_j
        419  1A2 0010A166 _ZN12RTCPInstance15addStreamSocketEih
        420  1A3 0010A77A _ZN12RTCPInstance15sendBuiltPacketEv
        421  1A4 0010A126 _ZN12RTCPInstance15setStreamSocketEih
        422  1A5 0010AB6C _ZN12RTCPInstance18enqueueReportBlockEP17RTPReceptionStats
        423  1A6 00109F96 _ZN12RTCPInstance20setSpecificRRHandlerEj4PortPFvPvES1_
        424  1A7 0010A198 _ZN12RTCPInstance21incomingReportHandlerEPS_i
        425  1A8 0010A1A8 _ZN12RTCPInstance22incomingReportHandler1Ev
        426  1A9 0010A82A _ZN12RTCPInstance22removeLastReceivedSSRCEv
        427  1AA 0010A0C8 _ZN12RTCPInstance22unsetSpecificRRHandlerEj4Port
        428  1AB 0010A9EC _ZN12RTCPInstance25enqueueCommonReportPrefixEhjj
        429  1AC 0010AA5E _ZN12RTCPInstance25enqueueCommonReportSuffixEv
        430  1AD 0010A9BE _ZN12RTCPInstance5addRREv
        431  1AE 0010A8F6 _ZN12RTCPInstance5addSREv
        432  1AF 0010ADA2 _ZN12RTCPInstance6addBYEEv
        433  1B0 0010ACE0 _ZN12RTCPInstance7addSDESEv
        434  1B1 0010A754 _ZN12RTCPInstance7sendBYEEv
        435  1B2 0010A8B4 _ZN12RTCPInstance8onExpireEPS_
        436  1B3 0010ADFE _ZN12RTCPInstance8scheduleEd
        437  1B4 0010A8C4 _ZN12RTCPInstance9addReportEv
        438  1B5 00109DF8 _ZN12RTCPInstance9createNewER16UsageEnvironmentP9GroupsockjPKhP7RTPSinkPK9RTPSourcej
        439  1B6 0010AE90 _ZN12RTCPInstance9onExpire1Ev
        440  1B7 0010A660 _ZN12RTCPInstance9onReceiveEiij
        441  1B8 0010942A _ZN12RTCPInstanceC1ER16UsageEnvironmentP9GroupsockjPKhP7RTPSinkPK9RTPSourcej
        442  1B9 001090BA _ZN12RTCPInstanceC2ER16UsageEnvironmentP9GroupsockjPKhP7RTPSinkPK9RTPSourcej
        443  1BA 00109BD2 _ZN12RTCPInstanceD0Ev
        444  1BB 001099B6 _ZN12RTCPInstanceD1Ev
        445  1BC 0010979A _ZN12RTCPInstanceD2Ev
        446  1BD 00108AD6 _ZN12RTPInterface10handleReadEPhjRjR11sockaddr_in
        447  1BE 001088F6 _ZN12RTPInterface10sendPacketEPhj
        448  1BF 00108786 _ZN12RTPInterface15addStreamSocketEih
        449  1C0 00108756 _ZN12RTPInterface15setStreamSocketEih
        450  1C1 0010888C _ZN12RTPInterface18removeStreamSocketEih
        451  1C2 00108BBA _ZN12RTPInterface18stopNetworkReadingEv
        452  1C3 00108956 _ZN12RTPInterface19startNetworkReadingEPFvPviE
        453  1C4 0010868C _ZN12RTPInterfaceC1EP6MediumP9Groupsock
        454  1C5 00108644 _ZN12RTPInterfaceC2EP6MediumP9Groupsock
        455  1C6 00108720 _ZN12RTPInterfaceD0Ev
        456  1C7 001086FA _ZN12RTPInterfaceD1Ev
        457  1C8 001086D4 _ZN12RTPInterfaceD2Ev
        458  1C9 00144B50 _ZN12SegmentQueue13isEmptyOrFullEv
        459  1CA 00144B70 _ZN12SegmentQueue13totalDataSizeEv
        460  1CB 000EE724 _ZN12SegmentQueue17enqueueNewSegmentEP12FramedSourceS1_
        461  1CC 000EE80A _ZN12SegmentQueue20sqAfterGettingCommonER7Segmentj
        462  1CD 000EE998 _ZN12SegmentQueue21insertDummyBeforeTailEj
        463  1CE 000EE7B6 _ZN12SegmentQueue21sqAfterGettingSegmentEPvjj7timevalj
        464  1CF 00144B80 _ZN12SegmentQueue5resetEv
        465  1D0 000EE8FE _ZN12SegmentQueue7dequeueEv
        466  1D1 0012DEC0 _ZN12StreamParser10flushInputEv
        467  1D2 00144BB0 _ZN12StreamParser10test4BytesEv
        468  1D3 00144C00 _ZN12StreamParser11nextToParseEv
        469  1D4 0012DD40 _ZN12StreamParser15saveParserStateEv
        470  1D5 00144C10 _ZN12StreamParser16ensureValidBytesEj
        471  1D6 0012DC9A _ZN12StreamParser17afterGettingBytesEPvjj7timevalj
        472  1D7 0012DB62 _ZN12StreamParser17ensureValidBytes1Ej
        473  1D8 0012DD54 _ZN12StreamParser23restoreSavedParserStateEv
        474  1D9 00144C40 _ZN12StreamParser7curBankEv
        475  1DA 0012DDCA _ZN12StreamParser7getBitsEj
        476  1DB 0012DD68 _ZN12StreamParser8skipBitsEj
        477  1DC 0012DA26 _ZN12StreamParserC1EP12FramedSourcePFvPvES2_PFvS2_Phj7timevalES2_
        478  1DD 0012D9B0 _ZN12StreamParserC2EP12FramedSourcePFvPvES2_PFvS2_Phj7timevalES2_
        479  1DE 0012DB18 _ZN12StreamParserD0Ev
        480  1DF 0012DADA _ZN12StreamParserD1Ev
        481  1E0 0012DA9C _ZN12StreamParserD2Ev
        482  1E1 001084F6 _ZN12VideoRTPSinkC1ER16UsageEnvironmentP9GroupsockhjPKc
        483  1E2 001084C0 _ZN12VideoRTPSinkC2ER16UsageEnvironmentP9GroupsockhjPKc
        484  1E3 00108560 _ZN12VideoRTPSinkD0Ev
        485  1E4 00108546 _ZN12VideoRTPSinkD1Ev
        486  1E5 0010852C _ZN12VideoRTPSinkD2Ev
        487  1E6 000EEA90 _ZN13ADUdescriptor18generateDescriptorERPhj
        488  1E7 000EEAF4 _ZN13ADUdescriptor21getRemainingFrameSizeERPh
        489  1E8 000EEACE _ZN13ADUdescriptor25generateTwoByteDescriptorERPhj
        490  1E9 0012E03C _ZN13Authenticator16setRealmAndNonceEPKcS1_
        491  1EA 0012E268 _ZN13Authenticator18resetRealmAndNonceEv
        492  1EB 0012E2FA _ZN13Authenticator19assignRealmAndNonceEPKcS1_
        493  1EC 0012E060 _ZN13Authenticator22setRealmAndRandomNonceEPKc
        494  1ED 0012E0B2 _ZN13Authenticator22setUsernameAndPasswordEPKcS1_j
        495  1EE 0012E2AE _ZN13Authenticator24resetUsernameAndPasswordEv
        496  1EF 0012E322 _ZN13Authenticator25assignUsernameAndPasswordEPKcS1_j
        497  1F0 0012E01E _ZN13Authenticator5resetEv
        498  1F1 0012E350 _ZN13Authenticator6assignEPKcS1_S1_S1_j
        499  1F2 0012DF5E _ZN13AuthenticatorC1ERKS_
        500  1F3 0012DF12 _ZN13AuthenticatorC1Ev
        501  1F4 0012DF34 _ZN13AuthenticatorC2ERKS_
        502  1F5 0012DEF0 _ZN13AuthenticatorC2Ev
        503  1F6 0012DFF8 _ZN13AuthenticatorD0Ev
        504  1F7 0012DFDE _ZN13AuthenticatorD1Ev
        505  1F8 0012DFC4 _ZN13AuthenticatorD2Ev
        506  1F9 0012DF88 _ZN13AuthenticatoraSERKS_
        507  1FA 000FB4C0 _ZN13MP3ADURTPSink22doSpecialFrameHandlingEjPhj7timevalj
        508  1FB 000FB3DE _ZN13MP3ADURTPSink9createNewER16UsageEnvironmentP9Groupsockh
        509  1FC 000FB34A _ZN13MP3ADURTPSinkC1ER16UsageEnvironmentP9Groupsockh
        510  1FD 000FB310 _ZN13MP3ADURTPSinkC2ER16UsageEnvironmentP9Groupsockh
        511  1FE 000FB3B8 _ZN13MP3ADURTPSinkD0Ev
        512  1FF 000FB39E _ZN13MP3ADURTPSinkD1Ev
        513  200 000FB384 _ZN13MP3ADURTPSinkD2Ev
        514  201 000ED362 _ZN13MP3FileSource12assignStreamEP6_iobufj
        515  202 000ED290 _ZN13MP3FileSource14doGetNextFrameEv
        516  203 000ED244 _ZN13MP3FileSource14seekWithinFileEf
        517  204 000ED2C0 _ZN13MP3FileSource15doGetNextFrame1Ev
        518  205 000ED37C _ZN13MP3FileSource16initializeStreamEv
        519  206 000ED232 _ZN13MP3FileSource24setPresentationTimeScaleEj
        520  207 000ED0EC _ZN13MP3FileSource9createNewER16UsageEnvironmentPKc
        521  208 000ECDBC _ZN13MP3FileSourceC1ER16UsageEnvironmentP6_iobuf
        522  209 000ECCD0 _ZN13MP3FileSourceC2ER16UsageEnvironmentP6_iobuf
        523  20A 000ED01C _ZN13MP3FileSourceD0Ev
        524  20B 000ECF62 _ZN13MP3FileSourceD1Ev
        525  20C 000ECEA8 _ZN13MP3FileSourceD2Ev
        526  20D 000ED6B2 _ZN13MP3HTTPSource11writeGetCmdEPKcjS1_
        527  20E 000ED3E0 _ZN13MP3HTTPSource9createNewER16UsageEnvironmentRK10NetAddress4PortPKcS7_
        528  20F 000ED634 _ZN13MP3HTTPSourceC1ER16UsageEnvironmentP6_iobuf
        529  210 000ED610 _ZN13MP3HTTPSourceC2ER16UsageEnvironmentP6_iobuf
        530  211 000ED68C _ZN13MP3HTTPSourceD0Ev
        531  212 000ED672 _ZN13MP3HTTPSourceD1Ev
        532  213 000ED658 _ZN13MP3HTTPSourceD2Ev
        533  214 000ED786 _ZN13MP3Transcoder9createNewER16UsageEnvironmentjP12FramedSource
        534  215 000ED706 _ZN13MP3TranscoderC1ER16UsageEnvironmentP16MP3ADUTranscoder
        535  216 000ED6E0 _ZN13MP3TranscoderC2ER16UsageEnvironmentP16MP3ADUTranscoder
        536  217 000ED760 _ZN13MP3TranscoderD0Ev
        537  218 000ED746 _ZN13MP3TranscoderD1Ev
        538  219 000ED72C _ZN13MP3TranscoderD2Ev
        539  21A 000E4C26 _ZN13MPEG1or2Demux10flushInputEv
        540  21B 000E4F8E _ZN13MPEG1or2Demux12getNextFrameEhPhjPFvPvjj7timevaljES1_PFvS1_ES1_
        541  21C 000E4E0C _ZN13MPEG1or2Demux12useSavedDataEhPhjPFvPvjj7timevaljES1_
        542  21D 000E5036 _ZN13MPEG1or2Demux13handleClosureEPv
        543  21E 000E4D10 _ZN13MPEG1or2Demux14newAudioStreamEv
        544  21F 000E4D38 _ZN13MPEG1or2Demux14newVideoStreamEv
        545  220 000E4D60 _ZN13MPEG1or2Demux15newRawPESStreamEv
        546  221 00144C50 _ZN13MPEG1or2Demux16OutputDescriptor9SavedDataD0Ev
        547  222 00144CA0 _ZN13MPEG1or2Demux16OutputDescriptor9SavedDataD1Ev
        548  223 000E5008 _ZN13MPEG1or2Demux17stopGettingFramesEh
        549  224 000E4C3C _ZN13MPEG1or2Demux19newElementaryStreamEh
        550  225 000E4D76 _ZN13MPEG1or2Demux20registerReadInterestEhPhjPFvPvjj7timevaljES1_PFvS1_ES1_
        551  226 000E4F0A _ZN13MPEG1or2Demux22continueReadProcessingEPvPhj7timeval
        552  227 000E4F1A _ZN13MPEG1or2Demux22continueReadProcessingEv
        553  228 000E4C00 _ZN13MPEG1or2Demux28noteElementaryStreamDeletionEP31MPEG1or2DemuxedElementaryStream
        554  229 000E4BE0 _ZN13MPEG1or2Demux3SCRC1Ev
        555  22A 000E4BC0 _ZN13MPEG1or2Demux3SCRC2Ev
        556  22B 000E4B1C _ZN13MPEG1or2Demux9createNewER16UsageEnvironmentP12FramedSourcej
        557  22C 000E4658 _ZN13MPEG1or2DemuxC1ER16UsageEnvironmentP12FramedSourcej
        558  22D 000E44E0 _ZN13MPEG1or2DemuxC2ER16UsageEnvironmentP12FramedSourcej
        559  22E 000E49FC _ZN13MPEG1or2DemuxD0Ev
        560  22F 000E48E6 _ZN13MPEG1or2DemuxD1Ev
        561  230 000E47D0 _ZN13MPEG1or2DemuxD2Ev
        562  231 000FE78C _ZN13SimpleRTPSink22doSpecialFrameHandlingEjPhj7timevalj
        563  232 000FE6C8 _ZN13SimpleRTPSink9createNewER16UsageEnvironmentP9GroupsockhjPKcS5_jjj
        564  233 000FE4F6 _ZN13SimpleRTPSinkC1ER16UsageEnvironmentP9GroupsockhjPKcS5_jjj
        565  234 000FE3E0 _ZN13SimpleRTPSinkC2ER16UsageEnvironmentP9GroupsockhjPKcS5_jjj
        566  235 000FE684 _ZN13SimpleRTPSinkD0Ev
        567  236 000FE648 _ZN13SimpleRTPSinkD1Ev
        568  237 000FE60C _ZN13SimpleRTPSinkD2Ev
        569  238 000D7C04 _ZN13TaskScheduler21rescheduleDelayedTaskERPvxPFvS0_ES0_
        570  239 000D7BC0 _ZN13TaskSchedulerC1Ev
        571  23A 000D7BB2 _ZN13TaskSchedulerC2Ev
        572  23B 000D7BEA _ZN13TaskSchedulerD0Ev
        573  23C 000D7BDC _ZN13TaskSchedulerD1Ev
        574  23D 000D7BCE _ZN13TaskSchedulerD2Ev
        575  23E 000F81E6 _ZN14AC3FrameParams19setParamsFromHeaderEv
        576  23F 000F8A52 _ZN14AMRAudioSourceC1ER16UsageEnvironmentjj
        577  240 000F8A20 _ZN14AMRAudioSourceC2ER16UsageEnvironmentjj
        578  241 000F8AB8 _ZN14AMRAudioSourceD0Ev
        579  242 000F8A9E _ZN14AMRAudioSourceD1Ev
        580  243 000F8A84 _ZN14AMRAudioSourceD2Ev
        581  244 000E2FFA _ZN14AudioPortNamesC1Ev
        582  245 000E2FDE _ZN14AudioPortNamesC2Ev
        583  246 000E30A2 _ZN14AudioPortNamesD0Ev
        584  247 000E305C _ZN14AudioPortNamesD1Ev
        585  248 000E3016 _ZN14AudioPortNamesD2Ev
        586  249 000E0968 _ZN14BasicHashTable11deleteEntryEjPNS_10TableEntryE
        587  24A 000E08A0 _ZN14BasicHashTable14insertNewEntryEjPKc
        588  24B 000E0522 _ZN14BasicHashTable3AddEPKcPv
        589  24C 000E0584 _ZN14BasicHashTable6RemoveEPKc
        590  24D 000E09EA _ZN14BasicHashTable7rebuildEv
        591  24E 000E0658 _ZN14BasicHashTable8Iterator4nextERPKc
        592  24F 000E0626 _ZN14BasicHashTable8IteratorC1ERS_
        593  250 000E05F4 _ZN14BasicHashTable8IteratorC2ERS_
        594  251 00144CE0 _ZN14BasicHashTable8IteratorD0Ev
        595  252 00144D10 _ZN14BasicHashTable8IteratorD1Ev
        596  253 000E08F6 _ZN14BasicHashTable9assignKeyEPNS_10TableEntryEPKc
        597  254 000E09AE _ZN14BasicHashTable9deleteKeyEPNS_10TableEntryE
        598  255 000E0180 _ZN14BasicHashTableC1Ei
        599  256 000E0120 _ZN14BasicHashTableC2Ei
        600  257 000E0404 _ZN14BasicHashTableD0Ev
        601  258 000E02F2 _ZN14BasicHashTableD1Ev
        602  259 000E01E0 _ZN14BasicHashTableD2Ev
        603  25A 000E2CD6 _ZN14BasicUDPSource14doGetNextFrameEv
        604  25B 000E2D0E _ZN14BasicUDPSource19doStopGettingFramesEv
        605  25C 000E2D36 _ZN14BasicUDPSource21incomingPacketHandlerEPS_i
        606  25D 000E2D46 _ZN14BasicUDPSource22incomingPacketHandler1Ev
        607  25E 000E2870 _ZN14BasicUDPSource9createNewER16UsageEnvironmentP9Groupsock
        608  25F 000E29DA _ZN14BasicUDPSourceC1ER16UsageEnvironmentP9Groupsock
        609  260 000E2910 _ZN14BasicUDPSourceC2ER16UsageEnvironmentP9Groupsock
        610  261 000E2C14 _ZN14BasicUDPSourceD0Ev
        611  262 000E2B5C _ZN14BasicUDPSourceD1Ev
        612  263 000E2AA4 _ZN14BasicUDPSourceD2Ev
        613  264 00101846 _ZN14BufferedPacket10appendDataEPhj
        614  265 00101784 _ZN14BufferedPacket10fillInDataER12RTPInterface
        615  266 0010182C _ZN14BufferedPacket13removePaddingEj
        616  267 001017D6 _ZN14BufferedPacket16assignMiscParamsEtj7timevaljjS0_
        617  268 00101756 _ZN14BufferedPacket21nextEnclosedFrameSizeERPhj
        618  269 0010175E _ZN14BufferedPacket30getNextEnclosedFrameParametersERPhjRjS2_
        619  26A 0010187A _ZN14BufferedPacket3useEPhjRjS1_RtS1_R7timevalS1_S1_
        620  26B 00101810 _ZN14BufferedPacket4skipEj
        621  26C 00101738 _ZN14BufferedPacket5resetEv
        622  26D 00101642 _ZN14BufferedPacketC1Ev
        623  26E 00101612 _ZN14BufferedPacketC2Ev
        624  26F 001016EE _ZN14BufferedPacketD0Ev
        625  270 001016B0 _ZN14BufferedPacketD1Ev
        626  271 00101672 _ZN14BufferedPacketD2Ev
        627  272 0012C774 _ZN14DarwinInjector12lookupByNameER16UsageEnvironmentPKcRPS_
        628  273 0012CD56 _ZN14DarwinInjector14setDestinationEPKcS1_S1_S1_tS1_S1_S1_S1_
        629  274 0012CC68 _ZN14DarwinInjector9addStreamEP7RTPSinkP12RTCPInstance
        630  275 0012C6D0 _ZN14DarwinInjector9createNewER16UsageEnvironmentPKci
        631  276 0012C8B6 _ZN14DarwinInjectorC1ER16UsageEnvironmentPKci
        632  277 0012C7E0 _ZN14DarwinInjectorC2ER16UsageEnvironmentPKci
        633  278 0012CB6C _ZN14DarwinInjectorD0Ev
        634  279 0012CA7C _ZN14DarwinInjectorD1Ev
        635  27A 0012C98C _ZN14DarwinInjectorD2Ev
        636  27B 000F2052 _ZN14MP3FrameParams11getSideInfoER11MP3SideInfo
        637  27C 000F17B2 _ZN14MP3FrameParams19computeSideInfoSizeEv
        638  27D 000F15D8 _ZN14MP3FrameParams19setParamsFromHeaderEv
        639  27E 000F1386 _ZN14MP3FrameParamsC1Ev
        640  27F 000F1140 _ZN14MP3FrameParamsC2Ev
        641  280 000F15D2 _ZN14MP3FrameParamsD1Ev
        642  281 000F15CC _ZN14MP3FrameParamsD2Ev
        643  282 000F0B02 _ZN14MP3StreamState11writeGetCmdEPKctS1_
        644  283 000F066E _ZN14MP3StreamState12assignStreamEP6_iobufj
        645  284 000F0B8A _ZN14MP3StreamState13findNextFrameEv
        646  285 000F08D4 _ZN14MP3StreamState14findNextHeaderER7timeval
        647  286 000F0F32 _ZN14MP3StreamState14readFromStreamEPhj
        648  287 000F0790 _ZN14MP3StreamState14seekWithinFileEf
        649  288 000F0FBC _ZN14MP3StreamState18checkForXingHeaderEv
        650  289 000F09C0 _ZN14MP3StreamState9readFrameEPhjRjS1_
        651  28A 000F0364 _ZN14MP3StreamStateC1ER16UsageEnvironment
        652  28B 000F0330 _ZN14MP3StreamStateC2ER16UsageEnvironment
        653  28C 000F0574 _ZN14MP3StreamStateD0Ev
        654  28D 000F0486 _ZN14MP3StreamStateD1Ev
        655  28E 000F0398 _ZN14MP3StreamStateD2Ev
        656  28F 000DD4C0 _ZN14NetAddressList5cleanEv
        657  290 000DD3B0 _ZN14NetAddressList6assignEjPP10NetAddress
        658  291 000DD558 _ZN14NetAddressList8Iterator11nextAddressEv
        659  292 000DD544 _ZN14NetAddressList8IteratorC1ERKS_
        660  293 000DD530 _ZN14NetAddressList8IteratorC2ERKS_
        661  294 000DD0CA _ZN14NetAddressListC1EPKc
        662  295 000DD302 _ZN14NetAddressListC1ERKS_
        663  296 000DCEB2 _ZN14NetAddressListC2EPKc
        664  297 000DD2E2 _ZN14NetAddressListC2ERKS_
        665  298 000DD38A _ZN14NetAddressListD0Ev
        666  299 000DD370 _ZN14NetAddressListD1Ev
        667  29A 000DD356 _ZN14NetAddressListD2Ev
        668  29B 000DD322 _ZN14NetAddressListaSERKS_
        669  29C 000FDE6A _ZN15AC3AudioRTPSink22doSpecialFrameHandlingEjPhj7timevalj
        670  29D 000FDDAA _ZN15AC3AudioRTPSink9createNewER16UsageEnvironmentP9Groupsockhj
        671  29E 000FDD18 _ZN15AC3AudioRTPSinkC1ER16UsageEnvironmentP9Groupsockhj
        672  29F 000FDCE0 _ZN15AC3AudioRTPSinkC2ER16UsageEnvironmentP9Groupsockhj
        673  2A0 000FDD84 _ZN15AC3AudioRTPSinkD0Ev
        674  2A1 000FDD6A _ZN15AC3AudioRTPSinkD1Ev
        675  2A2 000FDD50 _ZN15AC3AudioRTPSinkD2Ev
        676  2A3 000FEB6E _ZN15AMRAudioRTPSink10auxSDPLineEv
        677  2A4 000FEAC6 _ZN15AMRAudioRTPSink22doSpecialFrameHandlingEjPhj7timevalj
        678  2A5 000FEA44 _ZN15AMRAudioRTPSink24sourceIsCompatibleWithUsER11MediaSource
        679  2A6 000FE800 _ZN15AMRAudioRTPSink9createNewER16UsageEnvironmentP9Groupsockhjj
        680  2A7 000FE920 _ZN15AMRAudioRTPSinkC1ER16UsageEnvironmentP9Groupsockhjj
        681  2A8 000FE8B8 _ZN15AMRAudioRTPSinkC2ER16UsageEnvironmentP9Groupsockhjj
        682  2A9 000FEA00 _ZN15AMRAudioRTPSinkD0Ev
        683  2AA 000FE9C4 _ZN15AMRAudioRTPSinkD1Ev
        684  2AB 000FE988 _ZN15AMRAudioRTPSinkD2Ev
        685  2AC 00123B54 _ZN15ChunkDescriptor11extendChunkEjjjj7timeval
        686  2AD 00123A90 _ZN15ChunkDescriptorC1Ejjjj7timeval
        687  2AE 00123A4E _ZN15ChunkDescriptorC2Ejjjj7timeval
        688  2AF 00123B1E _ZN15ChunkDescriptorD0Ev
        689  2B0 00123AF8 _ZN15ChunkDescriptorD1Ev
        690  2B1 00123AD2 _ZN15ChunkDescriptorD2Ev
        691  2B2 00277060 _ZN15DelayQueueEntry12tokenCounterE
        692  2B3 000DF8D8 _ZN15DelayQueueEntry13handleTimeoutEv
        693  2B4 000DF872 _ZN15DelayQueueEntryC1E13DelayInterval
        694  2B5 000DF842 _ZN15DelayQueueEntryC2E13DelayInterval
        695  2B6 000DF8BE _ZN15DelayQueueEntryD0Ev
        696  2B7 000DF8B0 _ZN15DelayQueueEntryD1Ev
        697  2B8 000DF8A2 _ZN15DelayQueueEntryD2Ev
        698  2B9 000FDFDE _ZN15GSMAudioRTPSink9createNewER16UsageEnvironmentP9Groupsock
        699  2BA 000FDF52 _ZN15GSMAudioRTPSinkC1ER16UsageEnvironmentP9Groupsock
        700  2BB 000FDF20 _ZN15GSMAudioRTPSinkC2ER16UsageEnvironmentP9Groupsock
        701  2BC 000FDFB8 _ZN15GSMAudioRTPSinkD0Ev
        702  2BD 000FDF9E _ZN15GSMAudioRTPSinkD1Ev
        703  2BE 000FDF84 _ZN15GSMAudioRTPSinkD2Ev
        704  2BF 000DEE70 _ZN15HandlerIterator4nextEv
        705  2C0 000DEE5E _ZN15HandlerIterator5resetEv
        706  2C1 000DEE0A _ZN15HandlerIteratorC1ER10HandlerSet
        707  2C2 000DEDEC _ZN15HandlerIteratorC2ER10HandlerSet
        708  2C3 000DEE44 _ZN15HandlerIteratorD0Ev
        709  2C4 000DEE36 _ZN15HandlerIteratorD1Ev
        710  2C5 000DEE28 _ZN15HandlerIteratorD2Ev
        711  2C6 000F89FE _ZN15JPEGVideoSource18quantizationTablesERhRt
        712  2C7 000F8982 _ZN15JPEGVideoSourceC1ER16UsageEnvironment
        713  2C8 000F8960 _ZN15JPEGVideoSourceC2ER16UsageEnvironment
        714  2C9 000F89D8 _ZN15JPEGVideoSourceD0Ev
        715  2CA 000F89BE _ZN15JPEGVideoSourceD1Ev
        716  2CB 000F89A4 _ZN15JPEGVideoSourceD2Ev
        717  2CC 000F3B40 _ZN15MP3ADURTPSource9createNewER16UsageEnvironmentP9Groupsockhj
        718  2CD 000F3CD6 _ZN15MP3ADURTPSourceC1ER16UsageEnvironmentP9Groupsockhj
        719  2CE 000F3BF6 _ZN15MP3ADURTPSourceC2ER16UsageEnvironmentP9Groupsockhj
        720  2CF 000F3DEA _ZN15MP3ADURTPSourceD0Ev
        721  2D0 000F3DD0 _ZN15MP3ADURTPSourceD1Ev
        722  2D1 000F3DB6 _ZN15MP3ADURTPSourceD2Ev
        723  2D2 0011A164 _ZN15MediaSubsession10deInitiateEv
        724  2D3 0011A3E2 _ZN15MediaSubsession14parseSDPLine_cEPKc
        725  2D4 0011A33E _ZN15MediaSubsession15setDestinationsEj
        726  2D5 0011A1F8 _ZN15MediaSubsession16setClientPortNumEt
        727  2D6 0011A610 _ZN15MediaSubsession22parseSDPAttribute_fmtpEPKc
        728  2D7 0011A5A6 _ZN15MediaSubsession23parseSDPAttribute_rangeEPKc
        729  2D8 0011A426 _ZN15MediaSubsession24parseSDPAttribute_rtpmapEPKc
        730  2D9 0011A52C _ZN15MediaSubsession25parseSDPAttribute_controlEPKc
        731  2DA 0011AD84 _ZN15MediaSubsession27parseSDPAttribute_framerateEPKc
        732  2DB 0011AD38 _ZN15MediaSubsession30parseSDPAttribute_x_dimensionsEPKc
        733  2DC 0011AD20 _ZN15MediaSubsession31parseSDPAttribute_source_filterEPKc
        734  2DD 00118DC8 _ZN15MediaSubsession8initiateEi
        735  2DE 00118904 _ZN15MediaSubsessionC1ER12MediaSession
        736  2DF 00118760 _ZN15MediaSubsessionC2ER12MediaSession
        737  2E0 00118C9C _ZN15MediaSubsessionD0Ev
        738  2E1 00118BA2 _ZN15MediaSubsessionD1Ev
        739  2E2 00118AA8 _ZN15MediaSubsessionD2Ev
        740  2E3 000F98DA _ZN15OutPacketBuffer10insertWordEjj
        741  2E4 000F9864 _ZN15OutPacketBuffer11enqueueWordEj
        742  2E5 000F9942 _ZN15OutPacketBuffer11extractWordEj
        743  2E6 000F9986 _ZN15OutPacketBuffer15setOverflowDataEjjRK7timevalj
        744  2E7 000F99AE _ZN15OutPacketBuffer15useOverflowDataEv
        745  2E8 000F9A10 _ZN15OutPacketBuffer16resetPacketStartEv
        746  2E9 000F99EA _ZN15OutPacketBuffer17adjustPacketStartEj
        747  2EA 000F9888 _ZN15OutPacketBuffer6insertEPKhjj
        748  2EB 000F9822 _ZN15OutPacketBuffer7enqueueEPKhj
        749  2EC 000F9902 _ZN15OutPacketBuffer7extractEPhjj
        750  2ED 00177850 _ZN15OutPacketBuffer7maxSizeE
        751  2EE 000F9966 _ZN15OutPacketBuffer9skipBytesEj
        752  2EF 000F977E _ZN15OutPacketBufferC1Ejj
        753  2F0 000F971A _ZN15OutPacketBufferC2Ejj
        754  2F1 000F9802 _ZN15OutPacketBufferD1Ev
        755  2F2 000F97E2 _ZN15OutPacketBufferD2Ev
        756  2F3 00104484 _ZN15RawAMRRTPSource20processSpecialHeaderEP14BufferedPacketRj
        757  2F4 00104640 _ZN15RawAMRRTPSource28hasBeenSynchronizedUsingRTCPEv
        758  2F5 0010407A _ZN15RawAMRRTPSource9createNewER16UsageEnvironmentP9Groupsockhjjjj
        759  2F6 00104280 _ZN15RawAMRRTPSourceC1ER16UsageEnvironmentP9Groupsockhjjjj
        760  2F7 00104138 _ZN15RawAMRRTPSourceC2ER16UsageEnvironmentP9Groupsockhjjjj
        761  2F8 00104440 _ZN15RawAMRRTPSourceD0Ev
        762  2F9 00104404 _ZN15RawAMRRTPSourceD1Ev
        763  2FA 001043C8 _ZN15RawAMRRTPSourceD2Ev
        764  2FB 001021DE _ZN15SimpleRTPSource20processSpecialHeaderEP14BufferedPacketRj
        765  2FC 00101E50 _ZN15SimpleRTPSource9createNewER16UsageEnvironmentP9GroupsockhjPKcjj
        766  2FD 00102018 _ZN15SimpleRTPSourceC1ER16UsageEnvironmentP9GroupsockhjPKcjj
        767  2FE 00101F0E _ZN15SimpleRTPSourceC2ER16UsageEnvironmentP9GroupsockhjPKcjj
        768  2FF 0010219A _ZN15SimpleRTPSourceD0Ev
        769  300 0010215E _ZN15SimpleRTPSourceD1Ev
        770  301 00102122 _ZN15SimpleRTPSourceD2Ev
        771  302 00108F62 _ZN15tcpStreamRecordC1EihPS_
        772  303 00108F42 _ZN15tcpStreamRecordC2EihPS_
        773  304 00108FCE _ZN15tcpStreamRecordD0Ev
        774  305 00108FA8 _ZN15tcpStreamRecordD1Ev
        775  306 00108F82 _ZN15tcpStreamRecordD2Ev
        776  307 000EDC0C _ZN16ADUFromMP3Source10resetInputEv
        777  308 000EDC52 _ZN16ADUFromMP3Source14doGetNextFrameEv
        778  309 000EDC36 _ZN16ADUFromMP3Source14setScaleFactorEi
        779  30A 000EDCB2 _ZN16ADUFromMP3Source15doGetNextFrame1Ev
        780  30B 000EDB0A _ZN16ADUFromMP3Source9createNewER16UsageEnvironmentP12FramedSourcej
        781  30C 000ED980 _ZN16ADUFromMP3SourceC1ER16UsageEnvironmentP12FramedSourcej
        782  30D 000ED880 _ZN16ADUFromMP3SourceC2ER16UsageEnvironmentP12FramedSourcej
        783  30E 000EDAD0 _ZN16ADUFromMP3SourceD0Ev
        784  30F 000EDAA8 _ZN16ADUFromMP3SourceD1Ev
        785  310 000EDA80 _ZN16ADUFromMP3SourceD2Ev
        786  311 000FA7B8 _ZN16AMRAudioFileSink18afterGettingFrame1Ej7timeval
        787  312 000FA7A6 _ZN16AMRAudioFileSink24sourceIsCompatibleWithUsER11MediaSource
        788  313 000FA6AE _ZN16AMRAudioFileSink9createNewER16UsageEnvironmentPKcjj
        789  314 000FA622 _ZN16AMRAudioFileSinkC1ER16UsageEnvironmentP6_iobufjPKc
        790  315 000FA5F0 _ZN16AMRAudioFileSinkC2ER16UsageEnvironmentP6_iobufjPKc
        791  316 000FA688 _ZN16AMRAudioFileSinkD0Ev
        792  317 000FA66E _ZN16AMRAudioFileSinkD1Ev
        793  318 000FA654 _ZN16AMRAudioFileSinkD2Ev
        794  319 00104DB4 _ZN16AMRDeinterleaver14doGetNextFrameEv
        795  31A 00104E48 _ZN16AMRDeinterleaver17afterGettingFrameEPvjj7timevalj
        796  31B 00104E62 _ZN16AMRDeinterleaver18afterGettingFrame1Ej7timeval
        797  31C 00104E34 _ZN16AMRDeinterleaver19doStopGettingFramesEv
        798  31D 00104898 _ZN16AMRDeinterleaver9createNewER16UsageEnvironmentjjjP15RawAMRRTPSource
        799  31E 00104A3E _ZN16AMRDeinterleaverC1ER16UsageEnvironmentjjjP15RawAMRRTPSource
        800  31F 00104942 _ZN16AMRDeinterleaverC2ER16UsageEnvironmentjjjP15RawAMRRTPSource
        801  320 00104CDA _ZN16AMRDeinterleaverD0Ev
        802  321 00104C0A _ZN16AMRDeinterleaverD1Ev
        803  322 00104B3A _ZN16AMRDeinterleaverD2Ev
        804  323 002770B0 _ZN16AudioInputDevice18allowedDeviceNamesE
        805  324 000E2F42 _ZN16AudioInputDeviceC1ER16UsageEnvironmenthhjj
        806  325 000E2F00 _ZN16AudioInputDeviceC2ER16UsageEnvironmenthhjj
        807  326 000E2FB8 _ZN16AudioInputDeviceD0Ev
        808  327 000E2F9E _ZN16AudioInputDeviceD1Ev
        809  328 000E2F84 _ZN16AudioInputDeviceD2Ev
        810  329 000E1618 _ZN16FramedFileSourceC1ER16UsageEnvironmentP6_iobuf
        811  32A 000E15F0 _ZN16FramedFileSourceC2ER16UsageEnvironmentP6_iobuf
        812  32B 000E1674 _ZN16FramedFileSourceD0Ev
        813  32C 000E165A _ZN16FramedFileSourceD1Ev
        814  32D 000E1640 _ZN16FramedFileSourceD2Ev
        815  32E 000FD872 _ZN16H264VideoRTPSink10auxSDPLineEv
        816  32F 000FD7D6 _ZN16H264VideoRTPSink11stopPlayingEv
        817  330 000FD6D6 _ZN16H264VideoRTPSink15continuePlayingEv
        818  331 000FD80A _ZN16H264VideoRTPSink22doSpecialFrameHandlingEjPhj7timevalj
        819  332 000FD6C4 _ZN16H264VideoRTPSink24sourceIsCompatibleWithUsER11MediaSource
        820  333 000FD60C _ZN16H264VideoRTPSink9createNewER16UsageEnvironmentP9GroupsockhjPKc
        821  334 000FD240 _ZN16H264VideoRTPSinkC1ER16UsageEnvironmentP9GroupsockhjPKc
        822  335 000FD100 _ZN16H264VideoRTPSinkC2ER16UsageEnvironmentP9GroupsockhjPKc
        823  336 000FD52C _ZN16H264VideoRTPSinkD0Ev
        824  337 000FD456 _ZN16H264VideoRTPSinkD1Ev
        825  338 000FD380 _ZN16H264VideoRTPSinkD2Ev
        826  339 000FE216 _ZN16JPEGVideoRTPSink22doSpecialFrameHandlingEjPhj7timevalj
        827  33A 000FE1FA _ZN16JPEGVideoRTPSink24sourceIsCompatibleWithUsER11MediaSource
        828  33B 000FE15A _ZN16JPEGVideoRTPSink9createNewER16UsageEnvironmentP9Groupsock
        829  33C 000FE0D0 _ZN16JPEGVideoRTPSinkC1ER16UsageEnvironmentP9Groupsock
        830  33D 000FE0A0 _ZN16JPEGVideoRTPSinkC2ER16UsageEnvironmentP9Groupsock
        831  33E 000FE134 _ZN16JPEGVideoRTPSinkD0Ev
        832  33F 000FE11A _ZN16JPEGVideoRTPSinkD1Ev
        833  340 000FE100 _ZN16JPEGVideoRTPSinkD2Ev
        834  341 000F0288 _ZN16MP3ADUTranscoder14doGetNextFrameEv
        835  342 000F02B0 _ZN16MP3ADUTranscoder17afterGettingFrameEPvjj7timevalj
        836  343 000F02D0 _ZN16MP3ADUTranscoder18afterGettingFrame1Ejj7timevalj
        837  344 000F014A _ZN16MP3ADUTranscoder9createNewER16UsageEnvironmentjP12FramedSource
        838  345 000EFFD8 _ZN16MP3ADUTranscoderC1ER16UsageEnvironmentjP12FramedSource
        839  346 000EFF10 _ZN16MP3ADUTranscoderC2ER16UsageEnvironmentjP12FramedSource
        840  347 000F010C _ZN16MP3ADUTranscoderD0Ev
        841  348 000F00D6 _ZN16MP3ADUTranscoderD1Ev
        842  349 000F00A0 _ZN16MP3ADUTranscoderD2Ev
        843  34A 000EE312 _ZN16MP3FromADUSource14doGetNextFrameEv
        844  34B 000EE37A _ZN16MP3FromADUSource14needToGetAnADUEv
        845  34C 000EE54A _ZN16MP3FromADUSource24generateFrameFromHeadADUEv
        846  34D 000EE452 _ZN16MP3FromADUSource26insertDummyADUsIfNecessaryEv
        847  34E 000EE210 _ZN16MP3FromADUSource9createNewER16UsageEnvironmentP12FramedSourcej
        848  34F 000EE0A0 _ZN16MP3FromADUSourceC1ER16UsageEnvironmentP12FramedSourcej
        849  350 000EDFBA _ZN16MP3FromADUSourceC2ER16UsageEnvironmentP12FramedSourcej
        850  351 000EE1D6 _ZN16MP3FromADUSourceD0Ev
        851  352 000EE1AE _ZN16MP3FromADUSourceD1Ev
        852  353 000EE186 _ZN16MP3FromADUSourceD2Ev
        853  354 000E10F0 _ZN16MediaLookupTable15generateNewNameEPcj
        854  355 000E1048 _ZN16MediaLookupTable6addNewEP6MediumPc
        855  356 000E1064 _ZN16MediaLookupTable6removeEPKc
        856  357 000E0F60 _ZN16MediaLookupTable8ourMediaER16UsageEnvironment
        857  358 000E113A _ZN16MediaLookupTableC1ER16UsageEnvironment
        858  359 000E110E _ZN16MediaLookupTableC2ER16UsageEnvironment
        859  35A 000E11B2 _ZN16MediaLookupTableD0Ev
        860  35B 000E118C _ZN16MediaLookupTableD1Ev
        861  35C 000E1166 _ZN16MediaLookupTableD2Ev
        862  35D 00108E64 _ZN16SocketDescriptor14tcpReadHandlerEPS_i
        863  35E 00108DDC _ZN16SocketDescriptor18lookupRTPInterfaceEh
        864  35F 00108D78 _ZN16SocketDescriptor20registerRTPInterfaceEhP12RTPInterface
        865  360 00108DFC _ZN16SocketDescriptor22deregisterRTPInterfaceEh
        866  361 00108CCA _ZN16SocketDescriptorC1ER16UsageEnvironmenti
        867  362 00108C9E _ZN16SocketDescriptorC2ER16UsageEnvironmenti
        868  363 00108D42 _ZN16SocketDescriptorD0Ev
        869  364 00108D1C _ZN16SocketDescriptorD1Ev
        870  365 00108CF6 _ZN16SocketDescriptorD2Ev
        871  366 00144D30 _ZN16SubsessionBuffer5resetEv
        872  367 00144D40 _ZN16SubsessionBufferD0Ev
        873  368 00144D70 _ZN16SubsessionBufferD1Ev
        874  369 000D7B10 _ZN16UsageEnvironment7reclaimEv
        875  36A 000D7B5A _ZN16UsageEnvironmentC1ER13TaskScheduler
        876  36B 000D7B38 _ZN16UsageEnvironmentC2ER13TaskScheduler
        877  36C 000D7B98 _ZN16UsageEnvironmentD0Ev
        878  36D 000D7B8A _ZN16UsageEnvironmentD1Ev
        879  36E 000D7B7C _ZN16UsageEnvironmentD2Ev
        880  36F 000F88A4 _ZN17AC3AudioRTPSource20processSpecialHeaderEP14BufferedPacketRj
        881  370 000F8730 _ZN17AC3AudioRTPSource9createNewER16UsageEnvironmentP9Groupsockhj
        882  371 000F8818 _ZN17AC3AudioRTPSourceC1ER16UsageEnvironmentP9Groupsockhj
        883  372 000F87E6 _ZN17AC3AudioRTPSourceC2ER16UsageEnvironmentP9Groupsockhj
        884  373 000F887E _ZN17AC3AudioRTPSourceD0Ev
        885  374 000F8864 _ZN17AC3AudioRTPSourceD1Ev
        886  375 000F884A _ZN17AC3AudioRTPSourceD2Ev
        887  376 000F3E1A _ZN17ADUBufferedPacket21nextEnclosedFrameSizeERPhj
        888  377 00144D90 _ZN17ADUBufferedPacketD0Ev
        889  378 00144DC0 _ZN17ADUBufferedPacketD1Ev
        890  379 00103F20 _ZN17AMRAudioRTPSource9createNewER16UsageEnvironmentP9GroupsockRP9RTPSourcehjjjjjj
        891  37A 00104714 _ZN17AMRBufferedPacket21nextEnclosedFrameSizeERPhj
        892  37B 00104696 _ZN17AMRBufferedPacketC1ER15RawAMRRTPSource
        893  37C 00104672 _ZN17AMRBufferedPacketC2ER15RawAMRRTPSource
        894  37D 001046EE _ZN17AMRBufferedPacketD0Ev
        895  37E 001046D4 _ZN17AMRBufferedPacketD1Ev
        896  37F 001046BA _ZN17AMRBufferedPacketD2Ev
        897  380 000FDAF8 _ZN17H264FUAFragmenter14doGetNextFrameEv
        898  381 000FDC88 _ZN17H264FUAFragmenter17afterGettingFrameEPvjj7timevalj
        899  382 000FDCA8 _ZN17H264FUAFragmenter18afterGettingFrame1Ejj7timevalj
        900  383 000FD95E _ZN17H264FUAFragmenterC1ER16UsageEnvironmentP12FramedSourcejj
        901  384 000FD880 _ZN17H264FUAFragmenterC2ER16UsageEnvironmentP12FramedSourcejj
        902  385 000FDAB4 _ZN17H264FUAFragmenterD0Ev
        903  386 000FDA78 _ZN17H264FUAFragmenterD1Ev
        904  387 000FDA3C _ZN17H264FUAFragmenterD2Ev
        905  388 000FAAD0 _ZN17H264VideoFileSink18afterGettingFrame1Ej7timeval
        906  389 000FAAC6 _ZN17H264VideoFileSink24sourceIsCompatibleWithUsER11MediaSource
        907  38A 000FA9CE _ZN17H264VideoFileSink9createNewER16UsageEnvironmentPKcjj
        908  38B 000FA94A _ZN17H264VideoFileSinkC1ER16UsageEnvironmentP6_iobufjPKc
        909  38C 000FA920 _ZN17H264VideoFileSinkC2ER16UsageEnvironmentP6_iobufjPKc
        910  38D 000FA9A8 _ZN17H264VideoFileSinkD0Ev
        911  38E 000FA98E _ZN17H264VideoFileSinkD1Ev
        912  38F 000FA974 _ZN17H264VideoFileSinkD2Ev
        913  390 000DE896 _ZN17HandlerDescriptorC1EPS_
        914  391 000DE866 _ZN17HandlerDescriptorC2EPS_
        915  392 000DE902 _ZN17HandlerDescriptorD0Ev
        916  393 000DE8E4 _ZN17HandlerDescriptorD1Ev
        917  394 000DE8C6 _ZN17HandlerDescriptorD2Ev
        918  395 000EF2EA _ZN17MP3ADUinterleaver14doGetNextFrameEv
        919  396 000EF3E8 _ZN17MP3ADUinterleaver17afterGettingFrameEj7timevalj
        920  397 000EF37A _ZN17MP3ADUinterleaver20releaseOutgoingFrameEv
        921  398 000EF246 _ZN17MP3ADUinterleaver9createNewER16UsageEnvironmentRK12InterleavingP12FramedSource
        922  399 000EEE5A _ZN17MP3ADUinterleaverC1ER16UsageEnvironmentRK12InterleavingP12FramedSource
        923  39A 000EED14 _ZN17MP3ADUinterleaverC2ER16UsageEnvironmentRK12InterleavingP12FramedSource
        924  39B 000EF15C _ZN17MP3ADUinterleaverD0Ev
        925  39C 000EF07E _ZN17MP3ADUinterleaverD1Ev
        926  39D 000EEFA0 _ZN17MP3ADUinterleaverD2Ev
        927  39E 00126126 _ZN17QuickTimeFileSink11addAtom_rtpEv
        928  39F 0012678C _ZN17QuickTimeFileSink11addAtom_sdpEv
        929  3A0 00123C8E _ZN17QuickTimeFileSink11addHalfWordEt
        930  3A1 001255CA _ZN17QuickTimeFileSink12addAtom_FclpEv
        931  3A2 00125612 _ZN17QuickTimeFileSink12addAtom_HclpEv
        932  3A3 00125356 _ZN17QuickTimeFileSink12addAtom_QclpEv
        933  3A4 001250BE _ZN17QuickTimeFileSink12addAtom_alisEv
        934  3A5 00125BDC _ZN17QuickTimeFileSink12addAtom_avc1Ev
        935  3A6 00125D08 _ZN17QuickTimeFileSink12addAtom_avcCEv
        936  3A7 00126CA2 _ZN17QuickTimeFileSink12addAtom_dimmEv
        937  3A8 00125018 _ZN17QuickTimeFileSink12addAtom_dinfEv
        938  3A9 00126E44 _ZN17QuickTimeFileSink12addAtom_dmaxEv
        939  3AA 00126C38 _ZN17QuickTimeFileSink12addAtom_dmedEv
        940  3AB 0012505E _ZN17QuickTimeFileSink12addAtom_drefEv
        941  3AC 00126D0C _ZN17QuickTimeFileSink12addAtom_drepEv
        942  3AD 0012465E _ZN17QuickTimeFileSink12addAtom_edtsEv
        943  3AE 001246A4 _ZN17QuickTimeFileSink12addAtom_elstEv
        944  3AF 0012570A _ZN17QuickTimeFileSink12addAtom_esdsEv
        945  3B0 0012557A _ZN17QuickTimeFileSink12addAtom_frmaEv
        946  3B1 00123F80 _ZN17QuickTimeFileSink12addAtom_ftypEv
        947  3B2 00124EC4 _ZN17QuickTimeFileSink12addAtom_gmhdEv
        948  3B3 00124F0A _ZN17QuickTimeFileSink12addAtom_gminEv
        949  3B4 00125AB4 _ZN17QuickTimeFileSink12addAtom_h263Ev
        950  3B5 00124CE6 _ZN17QuickTimeFileSink12addAtom_hdlrEv
        951  3B6 0012693C _ZN17QuickTimeFileSink12addAtom_hinfEv
        952  3B7 00124BA0 _ZN17QuickTimeFileSink12addAtom_hintEv
        953  3B8 00126746 _ZN17QuickTimeFileSink12addAtom_hntiEv
        954  3B9 00124370 _ZN17QuickTimeFileSink12addAtom_iodsEv
        955  3BA 00124C4C _ZN17QuickTimeFileSink12addAtom_mdhdEv
        956  3BB 00124BF2 _ZN17QuickTimeFileSink12addAtom_mdiaEv
        957  3BC 00124D92 _ZN17QuickTimeFileSink12addAtom_minfEv
        958  3BD 00123FF8 _ZN17QuickTimeFileSink12addAtom_moovEv
        959  3BE 0012565A _ZN17QuickTimeFileSink12addAtom_mp4aEv
        960  3BF 00125FC4 _ZN17QuickTimeFileSink12addAtom_mp4vEv
        961  3C0 00124242 _ZN17QuickTimeFileSink12addAtom_mvhdEv
        962  3C1 001266D0 _ZN17QuickTimeFileSink12addAtom_nameEv
        963  3C2 00126A56 _ZN17QuickTimeFileSink12addAtom_npckEv
        964  3C3 00126B64 _ZN17QuickTimeFileSink12addAtom_numpEv
        965  3C4 00126E96 _ZN17QuickTimeFileSink12addAtom_paytEv
        966  3C5 00126DF2 _ZN17QuickTimeFileSink12addAtom_pmaxEv
        967  3C6 00124E14 _ZN17QuickTimeFileSink12addAtom_smhdEv
        968  3C7 00125A6C _ZN17QuickTimeFileSink12addAtom_srcqEv
        969  3C8 00125106 _ZN17QuickTimeFileSink12addAtom_stblEv
        970  3C9 001265EC _ZN17QuickTimeFileSink12addAtom_stcoEv
        971  3CA 0012632A _ZN17QuickTimeFileSink12addAtom_stscEv
        972  3CB 00125174 _ZN17QuickTimeFileSink12addAtom_stsdEv
        973  3CC 00126426 _ZN17QuickTimeFileSink12addAtom_stszEv
        974  3CD 001261F8 _ZN17QuickTimeFileSink12addAtom_sttsEv
        975  3CE 001261A6 _ZN17QuickTimeFileSink12addAtom_timsEv
        976  3CF 00124498 _ZN17QuickTimeFileSink12addAtom_tkhdEv
        977  3D0 00126DAA _ZN17QuickTimeFileSink12addAtom_tmaxEv
        978  3D1 00126D62 _ZN17QuickTimeFileSink12addAtom_tminEv
        979  3D2 00126A04 _ZN17QuickTimeFileSink12addAtom_totlEv
        980  3D3 00126AA8 _ZN17QuickTimeFileSink12addAtom_tpayEv
        981  3D4 00126BCE _ZN17QuickTimeFileSink12addAtom_tpylEv
        982  3D5 001243E8 _ZN17QuickTimeFileSink12addAtom_trakEv
        983  3D6 00124B5A _ZN17QuickTimeFileSink12addAtom_trefEv
        984  3D7 00126AFA _ZN17QuickTimeFileSink12addAtom_trpyEv
        985  3D8 00126676 _ZN17QuickTimeFileSink12addAtom_udtaEv
        986  3D9 00124E5C _ZN17QuickTimeFileSink12addAtom_vmhdEv
        987  3DA 001253E6 _ZN17QuickTimeFileSink12addAtom_waveEv
        988  3DB 00123CF2 _ZN17QuickTimeFileSink12addZeroWordsEj
        989  3DC 001219E6 _ZN17QuickTimeFileSink12startPlayingEPFvPvES0_
        990  3DD 00123ED8 _ZN17QuickTimeFileSink13addAtomHeaderEPKc
        991  3DE 00126F7A _ZN17QuickTimeFileSink13addAtom_dummyEv
        992  3DF 00124F80 _ZN17QuickTimeFileSink13addAtom_hdlr2Ev
        993  3E0 00123D2C _ZN17QuickTimeFileSink14add4ByteStringEPKc
        994  3E1 00121A2C _ZN17QuickTimeFileSink15continuePlayingEv
        995  3E2 00121BDE _ZN17QuickTimeFileSink15onSourceClosureEPv
        996  3E3 00121BEE _ZN17QuickTimeFileSink16onSourceClosure1Ev
        997  3E4 00121B9C _ZN17QuickTimeFileSink17afterGettingFrameEPvjj7timevalj
        998  3E5 00123DE6 _ZN17QuickTimeFileSink18addArbitraryStringEPKcj
        999  3E6 00121DCE _ZN17QuickTimeFileSink18completeOutputFileEv
       1000  3E7 001251F2 _ZN17QuickTimeFileSink20addAtom_genericMediaEv
       1001  3E8 00125280 _ZN17QuickTimeFileSink25addAtom_soundMediaGeneralEv
       1002  3E9 00123BD8 _ZN17QuickTimeFileSink7addWordEj
       1003  3EA 00123F00 _ZN17QuickTimeFileSink7setWordEjj
       1004  3EB 001218D2 _ZN17QuickTimeFileSink9createNewER16UsageEnvironmentR12MediaSessionPKcjttjjjjj
       1005  3EC 00121D0C _ZN17QuickTimeFileSink9onRTCPByeEPv
       1006  3ED 00121108 _ZN17QuickTimeFileSinkC1ER16UsageEnvironmentR12MediaSessionP6_iobufjttjjjjj
       1007  3EE 00120D40 _ZN17QuickTimeFileSinkC2ER16UsageEnvironmentR12MediaSessionP6_iobufjttjjjjj
       1008  3EF 00121774 _ZN17QuickTimeFileSinkD0Ev
       1009  3F0 00121622 _ZN17QuickTimeFileSinkD1Ev
       1010  3F1 001214D0 _ZN17QuickTimeFileSinkD2Ev
       1011  3F2 00100764 _ZN17RTPReceptionStats10initSeqNumEt
       1012  3F3 00100A5A _ZN17RTPReceptionStats14noteIncomingSREjjj
       1013  3F4 00100786 _ZN17RTPReceptionStats18noteIncomingPacketEtjjjR7timevalRjj
       1014  3F5 001006BA _ZN17RTPReceptionStats4initEj
       1015  3F6 00100B38 _ZN17RTPReceptionStats5resetEv
       1016  3F7 00100664 _ZN17RTPReceptionStatsC1ER9RTPSourcej
       1017  3F8 0010060E _ZN17RTPReceptionStatsC1ER9RTPSourcejt
       1018  3F9 00100644 _ZN17RTPReceptionStatsC2ER9RTPSourcej
       1019  3FA 001005D8 _ZN17RTPReceptionStatsC2ER9RTPSourcejt
       1020  3FB 001006A0 _ZN17RTPReceptionStatsD0Ev
       1021  3FC 00100692 _ZN17RTPReceptionStatsD1Ev
       1022  3FD 00100684 _ZN17RTPReceptionStatsD2Ev
       1023  3FE 00102E3C _ZN17RawQCELPRTPSource20processSpecialHeaderEP14BufferedPacketRj
       1024  3FF 00102EE6 _ZN17RawQCELPRTPSource28hasBeenSynchronizedUsingRTCPEv
       1025  400 00102B30 _ZN17RawQCELPRTPSource9createNewER16UsageEnvironmentP9Groupsockhj
       1026  401 00102CE4 _ZN17RawQCELPRTPSourceC1ER16UsageEnvironmentP9Groupsockhj
       1027  402 00102BE6 _ZN17RawQCELPRTPSourceC2ER16UsageEnvironmentP9Groupsockhj
       1028  403 00102E16 _ZN17RawQCELPRTPSourceD0Ev
       1029  404 00102DFC _ZN17RawQCELPRTPSourceD1Ev
       1030  405 00102DE2 _ZN17RawQCELPRTPSourceD2Ev
       1031  406 000DCB66 _ZN17SocketLookupTable5FetchER16UsageEnvironment4PortRj
       1032  407 000DCBFE _ZN17SocketLookupTable6RemoveEPK6Socket
       1033  408 000DCAC4 _ZN17SocketLookupTableC1Ev
       1034  409 000DCAA4 _ZN17SocketLookupTableC2Ev
       1035  40A 000DCB30 _ZN17SocketLookupTableD0Ev
       1036  40B 000DCB0A _ZN17SocketLookupTableD1Ev
       1037  40C 000DCAE4 _ZN17SocketLookupTableD2Ev
       1038  40D 0012259C _ZN17SubsessionIOState10setQTstateEv
       1039  40E 00123A1C _ZN17SubsessionIOState12setHintTrackEPS_S0_
       1040  40F 00123966 _ZN17SubsessionIOState15onSourceClosureEv
       1041  410 00122B5A _ZN17SubsessionIOState15setFinalQTstateEv
       1042  411 00122BF0 _ZN17SubsessionIOState17afterGettingFrameEj7timeval
       1043  412 00122FAC _ZN17SubsessionIOState18useFrameForHintingEj7timevalj
       1044  413 00278350 _ZN17SubsessionIOState19fCurrentTrackNumberE
       1045  414 00123980 _ZN17SubsessionIOState6syncOKE7timeval
       1046  415 00122DC8 _ZN17SubsessionIOState8useFrameER16SubsessionBuffer
       1047  416 00123816 _ZN17SubsessionIOState9useFrame1Ej7timevaljj
       1048  417 00122222 _ZN17SubsessionIOStateC1ER17QuickTimeFileSinkR15MediaSubsession
       1049  418 00121FB0 _ZN17SubsessionIOStateC2ER17QuickTimeFileSinkR15MediaSubsession
       1050  419 0012253C _ZN17SubsessionIOStateD0Ev
       1051  41A 001224E8 _ZN17SubsessionIOStateD1Ev
       1052  41B 00122494 _ZN17SubsessionIOStateD2Ev
       1053  41C 000F9050 _ZN18AMRAudioFileSource14doGetNextFrameEv
       1054  41D 000F8AF0 _ZN18AMRAudioFileSource9createNewER16UsageEnvironmentPKc
       1055  41E 000F8E14 _ZN18AMRAudioFileSourceC1ER16UsageEnvironmentP6_iobufjj
       1056  41F 000F8DE6 _ZN18AMRAudioFileSourceC2ER16UsageEnvironmentP6_iobufjj
       1057  420 000F8F9A _ZN18AMRAudioFileSourceD0Ev
       1058  421 000F8EEE _ZN18AMRAudioFileSourceD1Ev
       1059  422 000F8E42 _ZN18AMRAudioFileSourceD2Ev
       1060  423 000DF09C _ZN18BasicTaskScheduler10SingleStepEj
       1061  424 000DF57E _ZN18BasicTaskScheduler28turnOnBackgroundReadHandlingEiPFvPviES0_
       1062  425 000DF5DC _ZN18BasicTaskScheduler29turnOffBackgroundReadHandlingEi
       1063  426 000DEF50 _ZN18BasicTaskScheduler9createNewEv
       1064  427 000DF016 _ZN18BasicTaskSchedulerC1Ev
       1065  428 000DEFEA _ZN18BasicTaskSchedulerC2Ev
       1066  429 000DF076 _ZN18BasicTaskSchedulerD0Ev
       1067  42A 000DF05C _ZN18BasicTaskSchedulerD1Ev
       1068  42B 000DF042 _ZN18BasicTaskSchedulerD2Ev
       1069  42C 001023C8 _ZN18H261VideoRTPSource20processSpecialHeaderEP14BufferedPacketRj
       1070  42D 00102240 _ZN18H261VideoRTPSource9createNewER16UsageEnvironmentP9Groupsockhj
       1071  42E 00102332 _ZN18H261VideoRTPSourceC1ER16UsageEnvironmentP9Groupsockhj
       1072  42F 001022F6 _ZN18H261VideoRTPSourceC2ER16UsageEnvironmentP9Groupsockhj
       1073  430 001023A2 _ZN18H261VideoRTPSourceD0Ev
       1074  431 00102388 _ZN18H261VideoRTPSourceD1Ev
       1075  432 0010236E _ZN18H261VideoRTPSourceD2Ev
       1076  433 0010297A _ZN18H264BufferedPacket21nextEnclosedFrameSizeERPhj
       1077  434 001028FC _ZN18H264BufferedPacketC1ER18H264VideoRTPSource
       1078  435 001028D8 _ZN18H264BufferedPacketC2ER18H264VideoRTPSource
       1079  436 00102954 _ZN18H264BufferedPacketD0Ev
       1080  437 0010293A _ZN18H264BufferedPacketD1Ev
       1081  438 00102920 _ZN18H264BufferedPacketD2Ev
       1082  439 00102710 _ZN18H264VideoRTPSource20processSpecialHeaderEP14BufferedPacketRj
       1083  43A 00102440 _ZN18H264VideoRTPSource9createNewER16UsageEnvironmentP9Groupsockhj
       1084  43B 001025D6 _ZN18H264VideoRTPSourceC1ER16UsageEnvironmentP9Groupsockhj
       1085  43C 001024F6 _ZN18H264VideoRTPSourceC2ER16UsageEnvironmentP9Groupsockhj
       1086  43D 001026EA _ZN18H264VideoRTPSourceD0Ev
       1087  43E 001026D0 _ZN18H264VideoRTPSourceD1Ev
       1088  43F 001026B6 _ZN18H264VideoRTPSourceD2Ev
       1089  440 000EFAB8 _ZN18InterleavingFrames11releaseNextEv
       1090  441 000EFA40 _ZN18InterleavingFrames14setFrameParamsEhhhj7timevalj
       1091  442 000EF9AA _ZN18InterleavingFrames20haveReleaseableFrameEv
       1092  443 000EF9CE _ZN18InterleavingFrames22getIncomingFrameParamsEhRPhRj
       1093  444 000EF9FC _ZN18InterleavingFrames23getReleasingFrameParamsEhRPhRjR7timevalS2_
       1094  445 000EF8D0 _ZN18InterleavingFramesC1Ej
       1095  446 000EF878 _ZN18InterleavingFramesC2Ej
       1096  447 000EF974 _ZN18InterleavingFramesD0Ev
       1097  448 000EF94E _ZN18InterleavingFramesD1Ev
       1098  449 000EF928 _ZN18InterleavingFramesD2Ev
       1099  44A 001064BC _ZN18JPEGBufferedPacket21nextEnclosedFrameSizeERPhj
       1100  44B 0010648C _ZN18JPEGBufferedPacket5resetEv
       1101  44C 00144DE0 _ZN18JPEGBufferedPacketD0Ev
       1102  44D 00144E10 _ZN18JPEGBufferedPacketD1Ev
       1103  44E 001061E6 _ZN18JPEGVideoRTPSource20processSpecialHeaderEP14BufferedPacketRj
       1104  44F 00105A70 _ZN18JPEGVideoRTPSource9createNewER16UsageEnvironmentP9Groupsockhj
       1105  450 00105C06 _ZN18JPEGVideoRTPSourceC1ER16UsageEnvironmentP9Groupsockhj
       1106  451 00105B26 _ZN18JPEGVideoRTPSourceC2ER16UsageEnvironmentP9Groupsockhj
       1107  452 00105D1A _ZN18JPEGVideoRTPSourceD0Ev
       1108  453 00105D00 _ZN18JPEGVideoRTPSourceD1Ev
       1109  454 00105CE6 _ZN18JPEGVideoRTPSourceD2Ev
       1110  455 000EBBF0 _ZN18LATMBufferedPacket21nextEnclosedFrameSizeERPhj
       1111  456 000EBB72 _ZN18LATMBufferedPacketC1Ej
       1112  457 000EBB4E _ZN18LATMBufferedPacketC2Ej
       1113  458 000EBBCA _ZN18LATMBufferedPacketD0Ev
       1114  459 000EBBB0 _ZN18LATMBufferedPacketD1Ev
       1115  45A 000EBB96 _ZN18LATMBufferedPacketD2Ev
       1116  45B 00107D10 _ZN18MultiFramedRTPSink11stopPlayingEv
       1117  45C 00107B60 _ZN18MultiFramedRTPSink12setMarkerBitEv
       1118  45D 00107B92 _ZN18MultiFramedRTPSink12setTimestampE7timeval
       1119  45E 001075C0 _ZN18MultiFramedRTPSink14setPacketSizesEjj
       1120  45F 00107CF8 _ZN18MultiFramedRTPSink15continuePlayingEv
       1121  460 00107C60 _ZN18MultiFramedRTPSink15setFramePaddingEj
       1122  461 001083CC _ZN18MultiFramedRTPSink16ourHandleClosureEPv
       1123  462 00107F00 _ZN18MultiFramedRTPSink17afterGettingFrameEPvjj7timevalj
       1124  463 00107F20 _ZN18MultiFramedRTPSink18afterGettingFrame1Ejj7timevalj
       1125  464 00107D54 _ZN18MultiFramedRTPSink18buildAndSendPacketEj
       1126  465 00107BC8 _ZN18MultiFramedRTPSink20setSpecialHeaderWordEjj
       1127  466 0010825C _ZN18MultiFramedRTPSink21sendPacketIfNecessaryEv
       1128  467 00107BEE _ZN18MultiFramedRTPSink21setSpecialHeaderBytesEPKhjj
       1129  468 00107B06 _ZN18MultiFramedRTPSink22doSpecialFrameHandlingEjPhj7timevalj
       1130  469 00107C14 _ZN18MultiFramedRTPSink26setFrameSpecificHeaderWordEjj
       1131  46A 00107C3A _ZN18MultiFramedRTPSink27setFrameSpecificHeaderBytesEPKhjj
       1132  46B 001083BA _ZN18MultiFramedRTPSink8sendNextEPv
       1133  46C 00107E1A _ZN18MultiFramedRTPSink9packFrameEv
       1134  46D 001077B4 _ZN18MultiFramedRTPSinkC1ER16UsageEnvironmentP9GroupsockhjPKcj
       1135  46E 001076C4 _ZN18MultiFramedRTPSinkC2ER16UsageEnvironmentP9GroupsockhjPKcj
       1136  46F 00107A34 _ZN18MultiFramedRTPSinkD0Ev
       1137  470 0010796C _ZN18MultiFramedRTPSinkD1Ev
       1138  471 001078A4 _ZN18MultiFramedRTPSinkD2Ev
       1139  472 00103568 _ZN18QCELPDeinterleaver14doGetNextFrameEv
       1140  473 001035E6 _ZN18QCELPDeinterleaver17afterGettingFrameEPvjj7timevalj
       1141  474 00103600 _ZN18QCELPDeinterleaver18afterGettingFrame1Ej7timeval
       1142  475 001030BE _ZN18QCELPDeinterleaver9createNewER16UsageEnvironmentP17RawQCELPRTPSource
       1143  476 00103246 _ZN18QCELPDeinterleaverC1ER16UsageEnvironmentP17RawQCELPRTPSource
       1144  477 0010315E _ZN18QCELPDeinterleaverC2ER16UsageEnvironmentP17RawQCELPRTPSource
       1145  478 001034A2 _ZN18QCELPDeinterleaverD0Ev
       1146  479 001033E8 _ZN18QCELPDeinterleaverD1Ev
       1147  47A 0010332E _ZN18QCELPDeinterleaverD2Ev
       1148  47B 00109010 _ZN18RTCPMemberDatabase14reapOldMembersEj
       1149  47C 00144E30 _ZN18RTCPMemberDatabaseD0Ev
       1150  47D 00144E70 _ZN18RTCPMemberDatabaseD1Ev
       1151  47E 0011AEBE _ZN18ServerMediaSession12lookupByNameER16UsageEnvironmentPKcRPS_
       1152  47F 0011B514 _ZN18ServerMediaSession13addSubsessionEP21ServerMediaSubsession
       1153  480 0011B550 _ZN18ServerMediaSession15testScaleFactorERf
       1154  481 0011B740 _ZN18ServerMediaSession22generateSDPDescriptionEv
       1155  482 0011AE10 _ZN18ServerMediaSession9createNewER16UsageEnvironmentPKcS3_S3_jS3_
       1156  483 0011B08A _ZN18ServerMediaSessionC1ER16UsageEnvironmentPKcS3_S3_jS3_
       1157  484 0011AF2A _ZN18ServerMediaSessionC2ER16UsageEnvironmentPKcS3_S3_jS3_
       1158  485 0011B3FE _ZN18ServerMediaSessionD0Ev
       1159  486 0011B2F4 _ZN18ServerMediaSessionD1Ev
       1160  487 0011B1EA _ZN18ServerMediaSessionD2Ev
       1161  488 000E44C2 _ZN18WAVAudioFileSource12setInputPortEi
       1162  489 000E3294 _ZN18WAVAudioFileSource13seekToPCMByteEj
       1163  48A 000E4362 _ZN18WAVAudioFileSource14doGetNextFrameEv
       1164  48B 000E32C4 _ZN18WAVAudioFileSource14getAudioFormatEv
       1165  48C 000E323A _ZN18WAVAudioFileSource14setScaleFactorEi
       1166  48D 000E30F0 _ZN18WAVAudioFileSource9createNewER16UsageEnvironmentPKc
       1167  48E 000E3AA6 _ZN18WAVAudioFileSourceC1ER16UsageEnvironmentP6_iobuf
       1168  48F 000E33F8 _ZN18WAVAudioFileSourceC2ER16UsageEnvironmentP6_iobuf
       1169  490 000E42AC _ZN18WAVAudioFileSourceD0Ev
       1170  491 000E4200 _ZN18WAVAudioFileSourceD1Ev
       1171  492 000E4154 _ZN18WAVAudioFileSourceD2Ev
       1172  493 000F6A72 _ZN19ADTSAudioFileSource14doGetNextFrameEv
       1173  494 000F6390 _ZN19ADTSAudioFileSource9createNewER16UsageEnvironmentPKc
       1174  495 000F6716 _ZN19ADTSAudioFileSourceC1ER16UsageEnvironmentP6_iobufhhh
       1175  496 000F65C8 _ZN19ADTSAudioFileSourceC2ER16UsageEnvironmentP6_iobufhhh
       1176  497 000F69BC _ZN19ADTSAudioFileSourceD0Ev
       1177  498 000F6910 _ZN19ADTSAudioFileSourceD1Ev
       1178  499 000F6864 _ZN19ADTSAudioFileSourceD2Ev
       1179  49A 000DE83A _ZN19BasicTaskScheduler011doEventLoopEPc
       1180  49B 000DE6B6 _ZN19BasicTaskScheduler019scheduleDelayedTaskExPFvPvES0_
       1181  49C 000DE802 _ZN19BasicTaskScheduler021unscheduleDelayedTaskERPv
       1182  49D 000DE2B8 _ZN19BasicTaskScheduler0C1Ev
       1183  49E 000DE1A0 _ZN19BasicTaskScheduler0C2Ev
       1184  49F 000DE5B8 _ZN19BasicTaskScheduler0D0Ev
       1185  4A0 000DE4C4 _ZN19BasicTaskScheduler0D1Ev
       1186  4A1 000DE3D0 _ZN19BasicTaskScheduler0D2Ev
       1187  4A2 000F581E _ZN19InputESSourceRecord13askForNewDataEv
       1188  4A3 000F59A6 _ZN19InputESSourceRecord17afterGettingFrameEPvjj7timevalj
       1189  4A4 000F59C2 _ZN19InputESSourceRecord18afterGettingFrame1Ejj7timeval
       1190  4A5 000F58BE _ZN19InputESSourceRecord21deliverBufferToClientEv
       1191  4A6 000F56D8 _ZN19InputESSourceRecordC1ER32MPEG2TransportStreamFromESSourceP12FramedSourcehiPS_
       1192  4A7 000F567C _ZN19InputESSourceRecordC2ER32MPEG2TransportStreamFromESSourceP12FramedSourcehiPS_
       1193  4A8 000F57C8 _ZN19InputESSourceRecordD0Ev
       1194  4A9 000F577E _ZN19InputESSourceRecordD1Ev
       1195  4AA 000F5734 _ZN19InputESSourceRecordD2Ev
       1196  4AB 000EF73A _ZN19MP3ADUdeinterleaver14doGetNextFrameEv
       1197  4AC 000EF7A2 _ZN19MP3ADUdeinterleaver17afterGettingFrameEj7timevalj
       1198  4AD 000EF81E _ZN19MP3ADUdeinterleaver20releaseOutgoingFrameEv
       1199  4AE 000EF69A _ZN19MP3ADUdeinterleaver9createNewER16UsageEnvironmentP12FramedSource
       1200  4AF 000EF550 _ZN19MP3ADUdeinterleaverC1ER16UsageEnvironmentP12FramedSource
       1201  4B0 000EF460 _ZN19MP3ADUdeinterleaverC2ER16UsageEnvironmentP12FramedSource
       1202  4B1 000EF674 _ZN19MP3ADUdeinterleaverD0Ev
       1203  4B2 000EF65A _ZN19MP3ADUdeinterleaverD1Ev
       1204  4B3 000EF640 _ZN19MP3ADUdeinterleaverD2Ev
       1205  4B4 000FCD02 _ZN19MPEG4ESVideoRTPSink10auxSDPLineEv
       1206  4B5 000FCC38 _ZN19MPEG4ESVideoRTPSink22doSpecialFrameHandlingEjPhj7timevalj
       1207  4B6 000FCC26 _ZN19MPEG4ESVideoRTPSink24sourceIsCompatibleWithUsER11MediaSource
       1208  4B7 000FCB70 _ZN19MPEG4ESVideoRTPSink9createNewER16UsageEnvironmentP9Groupsockhj
       1209  4B8 000FCA6A _ZN19MPEG4ESVideoRTPSinkC1ER16UsageEnvironmentP9Groupsockhj
       1210  4B9 000FCA20 _ZN19MPEG4ESVideoRTPSinkC2ER16UsageEnvironmentP9Groupsockhj
       1211  4BA 000FCB2C _ZN19MPEG4ESVideoRTPSinkD0Ev
       1212  4BB 000FCAF0 _ZN19MPEG4ESVideoRTPSinkD1Ev
       1213  4BC 000FCAB4 _ZN19MPEG4ESVideoRTPSinkD2Ev
       1214  4BD 000FCA08 _ZN19MPEG4GenericRTPSink10auxSDPLineEv
       1215  4BE 000FC976 _ZN19MPEG4GenericRTPSink22doSpecialFrameHandlingEjPhj7timevalj
       1216  4BF 000FC8AA _ZN19MPEG4GenericRTPSink9createNewER16UsageEnvironmentP9GroupsockhjPKcS5_S5_j
       1217  4C0 000FC4C2 _ZN19MPEG4GenericRTPSinkC1ER16UsageEnvironmentP9GroupsockhjPKcS5_S5_j
       1218  4C1 000FC280 _ZN19MPEG4GenericRTPSinkC2ER16UsageEnvironmentP9GroupsockhjPKcS5_S5_j
       1219  4C2 000FC818 _ZN19MPEG4GenericRTPSinkD0Ev
       1220  4C3 000FC78E _ZN19MPEG4GenericRTPSinkD1Ev
       1221  4C4 000FC704 _ZN19MPEG4GenericRTPSinkD2Ev
       1222  4C5 00102AD0 _ZN19QCELPAudioRTPSource9createNewER16UsageEnvironmentP9GroupsockRP9RTPSourcehj
       1223  4C6 00102FBA _ZN19QCELPBufferedPacket21nextEnclosedFrameSizeERPhj
       1224  4C7 00102F3C _ZN19QCELPBufferedPacketC1ER17RawQCELPRTPSource
       1225  4C8 00102F18 _ZN19QCELPBufferedPacketC2ER17RawQCELPRTPSource
       1226  4C9 00102F94 _ZN19QCELPBufferedPacketD0Ev
       1227  4CA 00102F7A _ZN19QCELPBufferedPacketD1Ev
       1228  4CB 00102F60 _ZN19QCELPBufferedPacketD2Ev
       1229  4CC 00100454 _ZN19RTPReceptionStatsDB12removeRecordEj
       1230  4CD 00100356 _ZN19RTPReceptionStatsDB14noteIncomingSREjjjj
       1231  4CE 0010021E _ZN19RTPReceptionStatsDB18noteIncomingPacketEjtjjjR7timevalRjj
       1232  4CF 001005BC _ZN19RTPReceptionStatsDB3addEjP17RTPReceptionStats
       1233  4D0 0010004A _ZN19RTPReceptionStatsDB5resetEv
       1234  4D1 00100560 _ZN19RTPReceptionStatsDB8Iterator4nextEj
       1235  4D2 001004BA _ZN19RTPReceptionStatsDB8IteratorC1ERS_
       1236  4D3 00100496 _ZN19RTPReceptionStatsDB8IteratorC2ERS_
       1237  4D4 0010052A _ZN19RTPReceptionStatsDB8IteratorD0Ev
       1238  4D5 00100504 _ZN19RTPReceptionStatsDB8IteratorD1Ev
       1239  4D6 001004DE _ZN19RTPReceptionStatsDB8IteratorD2Ev
       1240  4D7 00100016 _ZN19RTPReceptionStatsDBC1ER9RTPSource
       1241  4D8 000FFFE2 _ZN19RTPReceptionStatsDBC2ER9RTPSource
       1242  4D9 001001C6 _ZN19RTPReceptionStatsDBD0Ev
       1243  4DA 0010017A _ZN19RTPReceptionStatsDBD1Ev
       1244  4DB 0010012E _ZN19RTPReceptionStatsDBD2Ev
       1245  4DC 0012D4EA _ZN19SubstreamDescriptorC1EP7RTPSinkP12RTCPInstance
       1246  4DD 0012D326 _ZN19SubstreamDescriptorC2EP7RTPSinkP12RTCPInstance
       1247  4DE 0012D6E2 _ZN19SubstreamDescriptorD1Ev
       1248  4DF 0012D6AE _ZN19SubstreamDescriptorD2Ev
       1249  4E0 000F8042 _ZN20AC3AudioStreamFramer10flushInputEv
       1250  4E1 000F8014 _ZN20AC3AudioStreamFramer12samplingRateEv
       1251  4E2 000F80F6 _ZN20AC3AudioStreamFramer13handleNewDataEPhj
       1252  4E3 000F80E0 _ZN20AC3AudioStreamFramer13handleNewDataEPvPhj7timeval
       1253  4E4 000F8056 _ZN20AC3AudioStreamFramer14doGetNextFrameEv
       1254  4E5 000F8138 _ZN20AC3AudioStreamFramer14parseNextFrameEv
       1255  4E6 000F7F62 _ZN20AC3AudioStreamFramer9createNewER16UsageEnvironmentP12FramedSourceh
       1256  4E7 000F7C24 _ZN20AC3AudioStreamFramerC1ER16UsageEnvironmentP12FramedSourceh
       1257  4E8 000F7B20 _ZN20AC3AudioStreamFramerC2ER16UsageEnvironmentP12FramedSourceh
       1258  4E9 000F7E9C _ZN20AC3AudioStreamFramerD0Ev
       1259  4EA 000F7DE2 _ZN20AC3AudioStreamFramerD1Ev
       1260  4EB 000F7D28 _ZN20AC3AudioStreamFramerD2Ev
       1261  4EC 000F83EE _ZN20AC3AudioStreamParser10parseFrameERj
       1262  4ED 000F838E _ZN20AC3AudioStreamParser14testStreamCodeEhPhj
       1263  4EE 000F8660 _ZN20AC3AudioStreamParser17readAndSaveAFrameEv
       1264  4EF 000F86E2 _ZN20AC3AudioStreamParser19onSavedFrameClosureEPv
       1265  4F0 000F86F2 _ZN20AC3AudioStreamParser20onSavedFrameClosure1Ev
       1266  4F1 000F837A _ZN20AC3AudioStreamParser20registerReadInterestEPhj
       1267  4F2 000F86BC _ZN20AC3AudioStreamParser22afterGettingSavedFrameEPvjj7timevalj
       1268  4F3 000F86D0 _ZN20AC3AudioStreamParser23afterGettingSavedFrame1Ej
       1269  4F4 000F82CE _ZN20AC3AudioStreamParserC1EP20AC3AudioStreamFramerP12FramedSource
       1270  4F5 000F827C _ZN20AC3AudioStreamParserC2EP20AC3AudioStreamFramerP12FramedSource
       1271  4F6 000F8354 _ZN20AC3AudioStreamParserD0Ev
       1272  4F7 000F833A _ZN20AC3AudioStreamParserD1Ev
       1273  4F8 000F8320 _ZN20AC3AudioStreamParserD2Ev
       1274  4F9 00128C58 _ZN20AVISubsessionIOState11setAVIstateEj
       1275  4FA 0012926E _ZN20AVISubsessionIOState15onSourceClosureEv
       1276  4FB 0012903E _ZN20AVISubsessionIOState17afterGettingFrameEj7timeval
       1277  4FC 00129110 _ZN20AVISubsessionIOState8useFrameER16SubsessionBuffer
       1278  4FD 001289CC _ZN20AVISubsessionIOStateC1ER11AVIFileSinkR15MediaSubsession
       1279  4FE 0012880C _ZN20AVISubsessionIOStateC2ER11AVIFileSinkR15MediaSubsession
       1280  4FF 00128C0C _ZN20AVISubsessionIOStateD0Ev
       1281  500 00128BCC _ZN20AVISubsessionIOStateD1Ev
       1282  501 00128B8C _ZN20AVISubsessionIOStateD2Ev
       1283  502 000E1EC0 _ZN20ByteStreamFileSource14doGetNextFrameEv
       1284  503 000E1F1A _ZN20ByteStreamFileSource14doReadFromFileEv
       1285  504 000E1B4C _ZN20ByteStreamFileSource18seekToByteAbsoluteEy
       1286  505 000E1B68 _ZN20ByteStreamFileSource18seekToByteRelativeEx
       1287  506 000E1EEE _ZN20ByteStreamFileSource19doStopGettingFramesEv
       1288  507 000E1EF4 _ZN20ByteStreamFileSource19fileReadableHandlerEPS_i
       1289  508 000E1A70 _ZN20ByteStreamFileSource9createNewER16UsageEnvironmentP6_iobufjjj
       1290  509 000E1960 _ZN20ByteStreamFileSource9createNewER16UsageEnvironmentPKcjj
       1291  50A 000E1BD6 _ZN20ByteStreamFileSourceC1ER16UsageEnvironmentP6_iobufjjj
       1292  50B 000E1B84 _ZN20ByteStreamFileSourceC2ER16UsageEnvironmentP6_iobufjjj
       1293  50C 000E1DDC _ZN20ByteStreamFileSourceD0Ev
       1294  50D 000E1D02 _ZN20ByteStreamFileSourceD1Ev
       1295  50E 000E1C28 _ZN20ByteStreamFileSourceD2Ev
       1296  50F 00120B30 _ZN20ClientTrickPlayState17updateTSRecordNumEv
       1297  510 00120970 _ZN20ClientTrickPlayState18updateStateFromNPTEf
       1298  511 00120A98 _ZN20ClientTrickPlayState23updateStateOnPlayChangeEj
       1299  512 001209C4 _ZN20ClientTrickPlayState24updateStateOnScaleChangeEv
       1300  513 00120B48 _ZN20ClientTrickPlayState35reseekOriginalTransportStreamSourceEv
       1301  514 00120B1C _ZN20ClientTrickPlayState9setSourceEP26MPEG2TransportStreamFramer
       1302  515 00120920 _ZN20ClientTrickPlayStateC1EP29MPEG2TransportStreamIndexFile
       1303  516 001208D0 _ZN20ClientTrickPlayStateC2EP29MPEG2TransportStreamIndexFile
       1304  517 000EFECC _ZN20DeinterleavingFrames11releaseNextEv
       1305  518 000EFEF2 _ZN20DeinterleavingFrames13startNewCycleEv
       1306  519 000EFCBE _ZN20DeinterleavingFrames20haveReleaseableFrameEv
       1307  51A 000EFD84 _ZN20DeinterleavingFrames22getIncomingFrameParamsERPhRj
       1308  51B 000EFE3C _ZN20DeinterleavingFrames23getReleasingFrameParamsERPhRjR7timevalS2_
       1309  51C 000EFE78 _ZN20DeinterleavingFrames26moveIncomingFrameIntoPlaceEv
       1310  51D 000EFDC6 _ZN20DeinterleavingFrames27getIncomingFrameParamsAfterEj7timevaljRhS1_
       1311  51E 000EFB58 _ZN20DeinterleavingFramesC1Ev
       1312  51F 000EFAE8 _ZN20DeinterleavingFramesC2Ev
       1313  520 000EFC64 _ZN20DeinterleavingFramesD0Ev
       1314  521 000EFC16 _ZN20DeinterleavingFramesD1Ev
       1315  522 000EFBC8 _ZN20DeinterleavingFramesD2Ev
       1316  523 000DC444 _ZN20DirectedNetInterfaceC1Ev
       1317  524 000DC428 _ZN20DirectedNetInterfaceC2Ev
       1318  525 000DC494 _ZN20DirectedNetInterfaceD0Ev
       1319  526 000DC47A _ZN20DirectedNetInterfaceD1Ev
       1320  527 000DC460 _ZN20DirectedNetInterfaceD2Ev
       1321  528 000DBF38 _ZN20GroupsockLookupTable5FetchER16UsageEnvironmentj4PorthRj
       1322  529 000DBFA6 _ZN20GroupsockLookupTable5FetchER16UsageEnvironmentjj4PortRj
       1323  52A 000DC07C _ZN20GroupsockLookupTable6AddNewER16UsageEnvironmentjj4Porth
       1324  52B 000DC03E _ZN20GroupsockLookupTable6LookupER16UsageEnvironmenti
       1325  52C 000DC00A _ZN20GroupsockLookupTable6LookupEj4Port
       1326  52D 000DC024 _ZN20GroupsockLookupTable6LookupEjj4Port
       1327  52E 000DC052 _ZN20GroupsockLookupTable6RemoveEPK9Groupsock
       1328  52F 000DC250 _ZN20GroupsockLookupTable8Iterator4nextEv
       1329  530 000DC23A _ZN20GroupsockLookupTable8IteratorC1ERS_
       1330  531 000DC224 _ZN20GroupsockLookupTable8IteratorC2ERS_
       1331  532 000FCFD6 _ZN20H263plusVideoRTPSink22doSpecialFrameHandlingEjPhj7timevalj
       1332  533 000FCF16 _ZN20H263plusVideoRTPSink9createNewER16UsageEnvironmentP9Groupsockhj
       1333  534 000FCE86 _ZN20H263plusVideoRTPSinkC1ER16UsageEnvironmentP9Groupsockhj
       1334  535 000FCE50 _ZN20H263plusVideoRTPSinkC2ER16UsageEnvironmentP9Groupsockhj
       1335  536 000FCEF0 _ZN20H263plusVideoRTPSinkD0Ev
       1336  537 000FCED6 _ZN20H263plusVideoRTPSinkD1Ev
       1337  538 000FCEBC _ZN20H263plusVideoRTPSinkD2Ev
       1338  539 000FB28E _ZN20MPEG1or2AudioRTPSink22doSpecialFrameHandlingEjPhj7timevalj
       1339  53A 000FB1EE _ZN20MPEG1or2AudioRTPSink9createNewER16UsageEnvironmentP9Groupsock
       1340  53B 000FB162 _ZN20MPEG1or2AudioRTPSinkC1ER16UsageEnvironmentP9Groupsock
       1341  53C 000FB130 _ZN20MPEG1or2AudioRTPSinkC2ER16UsageEnvironmentP9Groupsock
       1342  53D 000FB1C8 _ZN20MPEG1or2AudioRTPSinkD0Ev
       1343  53E 000FB1AE _ZN20MPEG1or2AudioRTPSinkD1Ev
       1344  53F 000FB194 _ZN20MPEG1or2AudioRTPSinkD2Ev
       1345  540 000FB89E _ZN20MPEG1or2VideoRTPSink22doSpecialFrameHandlingEjPhj7timevalj
       1346  541 000FB83A _ZN20MPEG1or2VideoRTPSink24sourceIsCompatibleWithUsER11MediaSource
       1347  542 000FB79A _ZN20MPEG1or2VideoRTPSink9createNewER16UsageEnvironmentP9Groupsock
       1348  543 000FB6F8 _ZN20MPEG1or2VideoRTPSinkC1ER16UsageEnvironmentP9Groupsock
       1349  544 000FB6B0 _ZN20MPEG1or2VideoRTPSinkC2ER16UsageEnvironmentP9Groupsock
       1350  545 000FB774 _ZN20MPEG1or2VideoRTPSinkD0Ev
       1351  546 000FB75A _ZN20MPEG1or2VideoRTPSinkD1Ev
       1352  547 000FB740 _ZN20MPEG1or2VideoRTPSinkD2Ev
       1353  548 001010E8 _ZN20MultiFramedRTPSource14doGetNextFrameEv
       1354  549 0010114A _ZN20MultiFramedRTPSource15doGetNextFrame1Ev
       1355  54A 00101390 _ZN20MultiFramedRTPSource18networkReadHandlerEPS_i
       1356  54B 001010BC _ZN20MultiFramedRTPSource19doStopGettingFramesEv
       1357  54C 0010109E _ZN20MultiFramedRTPSource20processSpecialHeaderEP14BufferedPacketRj
       1358  54D 0010137C _ZN20MultiFramedRTPSource32setPacketReorderingThresholdTimeEj
       1359  54E 001010B2 _ZN20MultiFramedRTPSource33packetIsUsableInJitterCalculationEPhj
       1360  54F 00100DF4 _ZN20MultiFramedRTPSource5resetEv
       1361  550 00100CCA _ZN20MultiFramedRTPSourceC1ER16UsageEnvironmentP9GroupsockhjP21BufferedPacketFactory
       1362  551 00100BA0 _ZN20MultiFramedRTPSourceC2ER16UsageEnvironmentP9GroupsockhjP21BufferedPacketFactory
       1363  552 00100FC6 _ZN20MultiFramedRTPSourceD0Ev
       1364  553 00100EFA _ZN20MultiFramedRTPSourceD1Ev
       1365  554 00100E2E _ZN20MultiFramedRTPSourceD2Ev
       1366  555 00107416 _ZN20RTPTransmissionStats14noteIncomingRRERK11sockaddr_injjjjj
       1367  556 0010755A _ZN20RTPTransmissionStats18getTotalOctetCountERjS0_
       1368  557 00107572 _ZN20RTPTransmissionStats19getTotalPacketCountERjS0_
       1369  558 00107358 _ZN20RTPTransmissionStatsC1ER7RTPSinkj
       1370  559 001072D0 _ZN20RTPTransmissionStatsC2ER7RTPSinkj
       1371  55A 001073FC _ZN20RTPTransmissionStatsD0Ev
       1372  55B 001073EE _ZN20RTPTransmissionStatsD1Ev
       1373  55C 001073E0 _ZN20RTPTransmissionStatsD2Ev
       1374  55D 000DDF56 _ZN21BasicUsageEnvironment9createNewER13TaskScheduler
       1375  55E 000DDE26 _ZN21BasicUsageEnvironmentC1ER13TaskScheduler
       1376  55F 000DDD50 _ZN21BasicUsageEnvironmentC2ER13TaskScheduler
       1377  560 000DDF30 _ZN21BasicUsageEnvironmentD0Ev
       1378  561 000DDF16 _ZN21BasicUsageEnvironmentD1Ev
       1379  562 000DDEFC _ZN21BasicUsageEnvironmentD2Ev
       1380  563 000DE020 _ZN21BasicUsageEnvironmentlsEPKc
       1381  564 000DE0C2 _ZN21BasicUsageEnvironmentlsEPv
       1382  565 000DE098 _ZN21BasicUsageEnvironmentlsEd
       1383  566 000DE048 _ZN21BasicUsageEnvironmentlsEi
       1384  567 000DE070 _ZN21BasicUsageEnvironmentlsEj
       1385  568 001019D4 _ZN21BufferedPacketFactory15createNewPacketEP20MultiFramedRTPSource
       1386  569 00101990 _ZN21BufferedPacketFactoryC1Ev
       1387  56A 00101982 _ZN21BufferedPacketFactoryC2Ev
       1388  56B 001019BA _ZN21BufferedPacketFactoryD0Ev
       1389  56C 001019AC _ZN21BufferedPacketFactoryD1Ev
       1390  56D 0010199E _ZN21BufferedPacketFactoryD2Ev
       1391  56E 000EA854 _ZN21H264VideoStreamFramerC1ER16UsageEnvironmentP12FramedSource
       1392  56F 000EA830 _ZN21H264VideoStreamFramerC2ER16UsageEnvironmentP12FramedSource
       1393  570 000EA8AC _ZN21H264VideoStreamFramerD0Ev
       1394  571 000EA892 _ZN21H264VideoStreamFramerD1Ev
       1395  572 000EA878 _ZN21H264VideoStreamFramerD2Ev
       1396  573 000EEC78 _ZN21MP3ADUinterleaverBase14getInputSourceER16UsageEnvironmentPKc
       1397  574 000EECEA _ZN21MP3ADUinterleaverBase17afterGettingFrameEPvjj7timevalj
       1398  575 000EEBFA _ZN21MP3ADUinterleaverBaseC1ER16UsageEnvironmentP12FramedSource
       1399  576 000EEBD6 _ZN21MP3ADUinterleaverBaseC2ER16UsageEnvironmentP12FramedSource
       1400  577 000EEC52 _ZN21MP3ADUinterleaverBaseD0Ev
       1401  578 000EEC38 _ZN21MP3ADUinterleaverBaseD1Ev
       1402  579 000EEC1E _ZN21MP3ADUinterleaverBaseD2Ev
       1403  57A 000FBD1C _ZN21MPEG1or2VideoHTTPSink14isUseableFrameEPhj
       1404  57B 000FBB50 _ZN21MPEG1or2VideoHTTPSink9createNewER16UsageEnvironment4Port
       1405  57C 000FBC94 _ZN21MPEG1or2VideoHTTPSinkC1ER16UsageEnvironmenti
       1406  57D 000FBC66 _ZN21MPEG1or2VideoHTTPSinkC2ER16UsageEnvironmenti
       1407  57E 000FBCF6 _ZN21MPEG1or2VideoHTTPSinkD0Ev
       1408  57F 000FBCDC _ZN21MPEG1or2VideoHTTPSinkD1Ev
       1409  580 000FBCC2 _ZN21MPEG1or2VideoHTTPSinkD2Ev
       1410  581 000EC164 _ZN21MPEG4ESVideoRTPSource20processSpecialHeaderEP14BufferedPacketRj
       1411  582 000EBFF0 _ZN21MPEG4ESVideoRTPSource9createNewER16UsageEnvironmentP9Groupsockhj
       1412  583 000EC0D8 _ZN21MPEG4ESVideoRTPSourceC1ER16UsageEnvironmentP9Groupsockhj
       1413  584 000EC0A6 _ZN21MPEG4ESVideoRTPSourceC2ER16UsageEnvironmentP9Groupsockhj
       1414  585 000EC13E _ZN21MPEG4ESVideoRTPSourceD0Ev
       1415  586 000EC124 _ZN21MPEG4ESVideoRTPSourceD1Ev
       1416  587 000EC10A _ZN21MPEG4ESVideoRTPSourceD2Ev
       1417  588 000EC844 _ZN21MPEG4GenericRTPSource20processSpecialHeaderEP14BufferedPacketRj
       1418  589 000EC1D0 _ZN21MPEG4GenericRTPSource9createNewER16UsageEnvironmentP9GroupsockhjPKcS5_jjj
       1419  58A 000EC4C0 _ZN21MPEG4GenericRTPSourceC1ER16UsageEnvironmentP9GroupsockhjPKcS5_jjj
       1420  58B 000EC294 _ZN21MPEG4GenericRTPSourceC2ER16UsageEnvironmentP9GroupsockhjPKcS5_jjj
       1421  58C 000EC7CC _ZN21MPEG4GenericRTPSourceD0Ev
       1422  58D 000EC75C _ZN21MPEG4GenericRTPSourceD1Ev
       1423  58E 000EC6EC _ZN21MPEG4GenericRTPSourceD2Ev
       1424  58F 000FC266 _ZN21MPEG4LATMAudioRTPSink10auxSDPLineEv
       1425  590 000FC21E _ZN21MPEG4LATMAudioRTPSink22doSpecialFrameHandlingEjPhj7timevalj
       1426  591 000FC152 _ZN21MPEG4LATMAudioRTPSink9createNewER16UsageEnvironmentP9GroupsockhjPKcjj
       1427  592 000FBEEC _ZN21MPEG4LATMAudioRTPSinkC1ER16UsageEnvironmentP9GroupsockhjPKcjj
       1428  593 000FBD90 _ZN21MPEG4LATMAudioRTPSinkC2ER16UsageEnvironmentP9GroupsockhjPKcjj
       1429  594 000FC0F4 _ZN21MPEG4LATMAudioRTPSinkD0Ev
       1430  595 000FC09E _ZN21MPEG4LATMAudioRTPSinkD1Ev
       1431  596 000FC048 _ZN21MPEG4LATMAudioRTPSinkD2Ev
       1432  597 000E66C0 _ZN21MPEGVideoStreamFramer10flushInputEv
       1433  598 000E6874 _ZN21MPEGVideoStreamFramer11setTimeCodeEjjjjj
       1434  599 000E6972 _ZN21MPEGVideoStreamFramer14doGetNextFrameEv
       1435  59A 000E6998 _ZN21MPEGVideoStreamFramer22continueReadProcessingEPvPhj7timeval
       1436  59B 000E69A8 _ZN21MPEGVideoStreamFramer22continueReadProcessingEv
       1437  59C 000E6742 _ZN21MPEGVideoStreamFramer23computePresentationTimeEj
       1438  59D 000E66EC _ZN21MPEGVideoStreamFramer5resetEv
       1439  59E 000E62CA _ZN21MPEGVideoStreamFramerC1ER16UsageEnvironmentP12FramedSource
       1440  59F 000E61C8 _ZN21MPEGVideoStreamFramerC2ER16UsageEnvironmentP12FramedSource
       1441  5A0 000E65BC _ZN21MPEGVideoStreamFramerD0Ev
       1442  5A1 000E64C4 _ZN21MPEGVideoStreamFramerD1Ev
       1443  5A2 000E63CC _ZN21MPEGVideoStreamFramerD2Ev
       1444  5A3 000EA9C8 _ZN21MPEGVideoStreamParser13setParseStateEv
       1445  5A4 000EA9E6 _ZN21MPEGVideoStreamParser20registerReadInterestEPhj
       1446  5A5 000EA9A6 _ZN21MPEGVideoStreamParser23restoreSavedParserStateEv
       1447  5A6 000EA916 _ZN21MPEGVideoStreamParserC1EP21MPEGVideoStreamFramerP12FramedSource
       1448  5A7 000EA8E0 _ZN21MPEGVideoStreamParserC2EP21MPEGVideoStreamFramerP12FramedSource
       1449  5A8 000EA980 _ZN21MPEGVideoStreamParserD0Ev
       1450  5A9 000EA966 _ZN21MPEGVideoStreamParserD1Ev
       1451  5AA 000EA94C _ZN21MPEGVideoStreamParserD2Ev
       1452  5AB 0011BE94 _ZN21ServerMediaSubsession10seekStreamEjPvf
       1453  5AC 0011BE8E _ZN21ServerMediaSubsession11pauseStreamEjPv
       1454  5AD 0011BEA0 _ZN21ServerMediaSubsession12deleteStreamEjRPv
       1455  5AE 0011BE9A _ZN21ServerMediaSubsession14setStreamScaleEjPvf
       1456  5AF 0011BEA6 _ZN21ServerMediaSubsession15testScaleFactorERf
       1457  5B0 0011BEBE _ZN21ServerMediaSubsession29setServerAddressAndPortForSDPEjt
       1458  5B1 0011BE46 _ZN21ServerMediaSubsession7trackIdEv
       1459  5B2 0011BBA0 _ZN21ServerMediaSubsessionC1ER16UsageEnvironment
       1460  5B3 0011BB56 _ZN21ServerMediaSubsessionC2ER16UsageEnvironment
       1461  5B4 0011BD76 _ZN21ServerMediaSubsessionD0Ev
       1462  5B5 0011BCB0 _ZN21ServerMediaSubsessionD1Ev
       1463  5B6 0011BBEA _ZN21ServerMediaSubsessionD2Ev
       1464  5B7 000DD6A8 _ZN22AddressPortLookupTable3AddEjj4PortPv
       1465  5B8 000DD6DC _ZN22AddressPortLookupTable6LookupEjj4Port
       1466  5B9 000DD70E _ZN22AddressPortLookupTable6RemoveEjj4Port
       1467  5BA 000DD80A _ZN22AddressPortLookupTable8Iterator4nextEv
       1468  5BB 000DD764 _ZN22AddressPortLookupTable8IteratorC1ERS_
       1469  5BC 000DD740 _ZN22AddressPortLookupTable8IteratorC2ERS_
       1470  5BD 000DD7D4 _ZN22AddressPortLookupTable8IteratorD0Ev
       1471  5BE 000DD7AE _ZN22AddressPortLookupTable8IteratorD1Ev
       1472  5BF 000DD788 _ZN22AddressPortLookupTable8IteratorD2Ev
       1473  5C0 000DD606 _ZN22AddressPortLookupTableC1Ev
       1474  5C1 000DD5E6 _ZN22AddressPortLookupTableC2Ev
       1475  5C2 000DD672 _ZN22AddressPortLookupTableD0Ev
       1476  5C3 000DD64C _ZN22AddressPortLookupTableD1Ev
       1477  5C4 000DD626 _ZN22AddressPortLookupTableD2Ev
       1478  5C5 000DDB68 _ZN22BasicUsageEnvironment012setResultMsgEPKc
       1479  5C6 000DDB8A _ZN22BasicUsageEnvironment012setResultMsgEPKcS1_
       1480  5C7 000DDBAE _ZN22BasicUsageEnvironment012setResultMsgEPKcS1_S1_
       1481  5C8 000DDBD6 _ZN22BasicUsageEnvironment015setResultErrMsgEPKc
       1482  5C9 000DDC0A _ZN22BasicUsageEnvironment017appendToResultMsgEPKc
       1483  5CA 000DDC70 _ZN22BasicUsageEnvironment021reportBackgroundErrorEv
       1484  5CB 000DDB46 _ZN22BasicUsageEnvironment05resetEv
       1485  5CC 000DDA36 _ZN22BasicUsageEnvironment0C1ER13TaskScheduler
       1486  5CD 000DD980 _ZN22BasicUsageEnvironment0C2ER13TaskScheduler
       1487  5CE 000DDB20 _ZN22BasicUsageEnvironment0D0Ev
       1488  5CF 000DDB06 _ZN22BasicUsageEnvironment0D1Ev
       1489  5D0 000DDAEC _ZN22BasicUsageEnvironment0D2Ev
       1490  5D1 000F6D68 _ZN22H263plusVideoRTPSource20processSpecialHeaderEP14BufferedPacketRj
       1491  5D2 000F6BD0 _ZN22H263plusVideoRTPSource9createNewER16UsageEnvironmentP9Groupsockhj
       1492  5D3 000F6CCA _ZN22H263plusVideoRTPSourceC1ER16UsageEnvironmentP9Groupsockhj
       1493  5D4 000F6C86 _ZN22H263plusVideoRTPSourceC2ER16UsageEnvironmentP9Groupsockhj
       1494  5D5 000F6D42 _ZN22H263plusVideoRTPSourceD0Ev
       1495  5D6 000F6D28 _ZN22H263plusVideoRTPSourceD1Ev
       1496  5D7 000F6D0E _ZN22H263plusVideoRTPSourceD2Ev
       1497  5D8 000FF6D0 _ZN22HostFromNetworkOrder1614doGetNextFrameEv
       1498  5D9 000FF6F6 _ZN22HostFromNetworkOrder1617afterGettingFrameEPvjj7timevalj
       1499  5DA 000FF716 _ZN22HostFromNetworkOrder1618afterGettingFrame1Ejj7timevalj
       1500  5DB 000FF58E _ZN22HostFromNetworkOrder169createNewER16UsageEnvironmentP12FramedSource
       1501  5DC 000FF652 _ZN22HostFromNetworkOrder16C1ER16UsageEnvironmentP12FramedSource
       1502  5DD 000FF62E _ZN22HostFromNetworkOrder16C2ER16UsageEnvironmentP12FramedSource
       1503  5DE 000FF6AA _ZN22HostFromNetworkOrder16D0Ev
       1504  5DF 000FF690 _ZN22HostFromNetworkOrder16D1Ev
       1505  5E0 000FF676 _ZN22HostFromNetworkOrder16D2Ev
       1506  5E1 000F2B48 _ZN22MP3HuffmanEncodingInfoC1Ej
       1507  5E2 000F2B10 _ZN22MP3HuffmanEncodingInfoC2Ej
       1508  5E3 000F2BA6 _ZN22MP3HuffmanEncodingInfoD1Ev
       1509  5E4 000F2B80 _ZN22MP3HuffmanEncodingInfoD2Ev
       1510  5E5 000EB7E4 _ZN22MPEG1or2AudioRTPSource20processSpecialHeaderEP14BufferedPacketRj
       1511  5E6 000EB670 _ZN22MPEG1or2AudioRTPSource9createNewER16UsageEnvironmentP9Groupsockhj
       1512  5E7 000EB758 _ZN22MPEG1or2AudioRTPSourceC1ER16UsageEnvironmentP9Groupsockhj
       1513  5E8 000EB726 _ZN22MPEG1or2AudioRTPSourceC2ER16UsageEnvironmentP9Groupsockhj
       1514  5E9 000EB7BE _ZN22MPEG1or2AudioRTPSourceD0Ev
       1515  5EA 000EB7A4 _ZN22MPEG1or2AudioRTPSourceD1Ev
       1516  5EB 000EB78A _ZN22MPEG1or2AudioRTPSourceD2Ev
       1517  5EC 000F4074 _ZN22MPEG1or2VideoRTPSource20processSpecialHeaderEP14BufferedPacketRj
       1518  5ED 000F40F6 _ZN22MPEG1or2VideoRTPSource33packetIsUsableInJitterCalculationEPhj
       1519  5EE 000F3F00 _ZN22MPEG1or2VideoRTPSource9createNewER16UsageEnvironmentP9Groupsockhj
       1520  5EF 000F3FE8 _ZN22MPEG1or2VideoRTPSourceC1ER16UsageEnvironmentP9Groupsockhj
       1521  5F0 000F3FB6 _ZN22MPEG1or2VideoRTPSourceC2ER16UsageEnvironmentP9Groupsockhj
       1522  5F1 000F404E _ZN22MPEG1or2VideoRTPSourceD0Ev
       1523  5F2 000F4034 _ZN22MPEG1or2VideoRTPSourceD1Ev
       1524  5F3 000F401A _ZN22MPEG1or2VideoRTPSourceD2Ev
       1525  5F4 000E88DA _ZN22MPEG4VideoStreamFramer14startNewConfigEv
       1526  5F5 000E8918 _ZN22MPEG4VideoStreamFramer17appendToNewConfigEPhj
       1527  5F6 000E8992 _ZN22MPEG4VideoStreamFramer17completeNewConfigEv
       1528  5F7 000E84C0 _ZN22MPEG4VideoStreamFramer9createNewER16UsageEnvironmentP12FramedSource
       1529  5F8 000E86A6 _ZN22MPEG4VideoStreamFramerC1ER16UsageEnvironmentP12FramedSourcej
       1530  5F9 000E857C _ZN22MPEG4VideoStreamFramerC2ER16UsageEnvironmentP12FramedSourcej
       1531  5FA 000E887C _ZN22MPEG4VideoStreamFramerD0Ev
       1532  5FB 000E8826 _ZN22MPEG4VideoStreamFramerD1Ev
       1533  5FC 000E87D0 _ZN22MPEG4VideoStreamFramerD2Ev
       1534  5FD 000E8B38 _ZN22MPEG4VideoStreamParser10flushInputEv
       1535  5FE 000E8B20 _ZN22MPEG4VideoStreamParser13setParseStateE14MPEGParseState
       1536  5FF 000E9328 _ZN22MPEG4VideoStreamParser15getNextFrameBitERh
       1537  600 000E93CE _ZN22MPEG4VideoStreamParser16analyzeVOLHeaderEv
       1538  601 000E9374 _ZN22MPEG4VideoStreamParser16getNextFrameBitsEjRj
       1539  602 000E8FE0 _ZN22MPEG4VideoStreamParser17parseVisualObjectEv
       1540  603 000E95C8 _ZN22MPEG4VideoStreamParser21parseVideoObjectLayerEv
       1541  604 000E9AB4 _ZN22MPEG4VideoStreamParser21parseVideoObjectPlaneEv
       1542  605 000E8CD4 _ZN22MPEG4VideoStreamParser25parseVisualObjectSequenceEj
       1543  606 000E97CA _ZN22MPEG4VideoStreamParser28parseGroupOfVideoObjectPlaneEv
       1544  607 000EA096 _ZN22MPEG4VideoStreamParser32parseVisualObjectSequenceEndCodeEv
       1545  608 000E8B80 _ZN22MPEG4VideoStreamParser5parseEv
       1546  609 000E8A5C _ZN22MPEG4VideoStreamParserC1EP22MPEG4VideoStreamFramerP12FramedSource
       1547  60A 000E89F2 _ZN22MPEG4VideoStreamParserC2EP22MPEG4VideoStreamFramerP12FramedSource
       1548  60B 000E8AFA _ZN22MPEG4VideoStreamParserD0Ev
       1549  60C 000E8AE0 _ZN22MPEG4VideoStreamParserD1Ev
       1550  60D 000E8AC6 _ZN22MPEG4VideoStreamParserD2Ev
       1551  60E 000FF4C4 _ZN22NetworkFromHostOrder1614doGetNextFrameEv
       1552  60F 000FF4EA _ZN22NetworkFromHostOrder1617afterGettingFrameEPvjj7timevalj
       1553  610 000FF50A _ZN22NetworkFromHostOrder1618afterGettingFrame1Ejj7timevalj
       1554  611 000FF382 _ZN22NetworkFromHostOrder169createNewER16UsageEnvironmentP12FramedSource
       1555  612 000FF446 _ZN22NetworkFromHostOrder16C1ER16UsageEnvironmentP12FramedSource
       1556  613 000FF422 _ZN22NetworkFromHostOrder16C2ER16UsageEnvironmentP12FramedSource
       1557  614 000FF49E _ZN22NetworkFromHostOrder16D0Ev
       1558  615 000FF484 _ZN22NetworkFromHostOrder16D1Ev
       1559  616 000FF46A _ZN22NetworkFromHostOrder16D2Ev
       1560  617 000FF25E _ZN22PCMFromuLawAudioSource14doGetNextFrameEv
       1561  618 000FF2BA _ZN22PCMFromuLawAudioSource17afterGettingFrameEPvjj7timevalj
       1562  619 000FF308 _ZN22PCMFromuLawAudioSource18afterGettingFrame1Ejj7timevalj
       1563  61A 000FF0B0 _ZN22PCMFromuLawAudioSource9createNewER16UsageEnvironmentP12FramedSource
       1564  61B 000FF182 _ZN22PCMFromuLawAudioSourceC1ER16UsageEnvironmentP12FramedSource
       1565  61C 000FF150 _ZN22PCMFromuLawAudioSourceC2ER16UsageEnvironmentP12FramedSource
       1566  61D 000FF220 _ZN22PCMFromuLawAudioSourceD0Ev
       1567  61E 000FF1EA _ZN22PCMFromuLawAudioSourceD1Ev
       1568  61F 000FF1B4 _ZN22PCMFromuLawAudioSourceD2Ev
       1569  620 0010716A _ZN22RTPTransmissionStatsDB12removeRecordEj
       1570  621 00107060 _ZN22RTPTransmissionStatsDB14noteIncomingRREjRK11sockaddr_injjjjj
       1571  622 001072AC _ZN22RTPTransmissionStatsDB3addEjP20RTPTransmissionStats
       1572  623 00107278 _ZN22RTPTransmissionStatsDB8Iterator4nextEv
       1573  624 001071D2 _ZN22RTPTransmissionStatsDB8IteratorC1ERS_
       1574  625 001071AE _ZN22RTPTransmissionStatsDB8IteratorC2ERS_
       1575  626 00107242 _ZN22RTPTransmissionStatsDB8IteratorD0Ev
       1576  627 0010721C _ZN22RTPTransmissionStatsDB8IteratorD1Ev
       1577  628 001071F6 _ZN22RTPTransmissionStatsDB8IteratorD2Ev
       1578  629 00106F44 _ZN22RTPTransmissionStatsDBC1ER7RTPSink
       1579  62A 00106F18 _ZN22RTPTransmissionStatsDBC2ER7RTPSink
       1580  62B 00107008 _ZN22RTPTransmissionStatsDBD0Ev
       1581  62C 00106FBC _ZN22RTPTransmissionStatsDBD1Ev
       1582  62D 00106F70 _ZN22RTPTransmissionStatsDBD2Ev
       1583  62E 00101C78 _ZN22ReorderingPacketBuffer11storePacketEP14BufferedPacket
       1584  62F 00101C22 _ZN22ReorderingPacketBuffer13getFreePacketEP20MultiFramedRTPSource
       1585  630 00101D6A _ZN22ReorderingPacketBuffer17releaseUsedPacketEP14BufferedPacket
       1586  631 00101DAA _ZN22ReorderingPacketBuffer22getNextCompletedPacketERj
       1587  632 00101BCE _ZN22ReorderingPacketBuffer5resetEv
       1588  633 00101ACA _ZN22ReorderingPacketBufferC1EP21BufferedPacketFactory
       1589  634 00101A6E _ZN22ReorderingPacketBufferC2EP21BufferedPacketFactory
       1590  635 00101B8E _ZN22ReorderingPacketBufferD0Ev
       1591  636 00101B5A _ZN22ReorderingPacketBufferD1Ev
       1592  637 00101B26 _ZN22ReorderingPacketBufferD2Ev
       1593  638 000FEEC8 _ZN22uLawFromPCMAudioSource14doGetNextFrameEv
       1594  639 000FEF24 _ZN22uLawFromPCMAudioSource17afterGettingFrameEPvjj7timevalj
       1595  63A 000FEFA2 _ZN22uLawFromPCMAudioSource18afterGettingFrame1Ejj7timevalj
       1596  63B 000FECD0 _ZN22uLawFromPCMAudioSource9createNewER16UsageEnvironmentP12FramedSourcei
       1597  63C 000FEDE6 _ZN22uLawFromPCMAudioSourceC1ER16UsageEnvironmentP12FramedSourcei
       1598  63D 000FEDAE _ZN22uLawFromPCMAudioSourceC2ER16UsageEnvironmentP12FramedSourcei
       1599  63E 000FEE8A _ZN22uLawFromPCMAudioSourceD0Ev
       1600  63F 000FEE54 _ZN22uLawFromPCMAudioSourceD1Ev
       1601  640 000FEE1E _ZN22uLawFromPCMAudioSourceD2Ev
       1602  641 0010571C _ZN23AMRDeinterleavingBuffer13retrieveFrameEPhjRjS1_RhR7timeval
       1603  642 00105862 _ZN23AMRDeinterleavingBuffer15FrameDescriptorC1Ev
       1604  643 00105846 _ZN23AMRDeinterleavingBuffer15FrameDescriptorC2Ev
       1605  644 001058CA _ZN23AMRDeinterleavingBuffer15FrameDescriptorD0Ev
       1606  645 001058A4 _ZN23AMRDeinterleavingBuffer15FrameDescriptorD1Ev
       1607  646 0010587E _ZN23AMRDeinterleavingBuffer15FrameDescriptorD2Ev
       1608  647 00105836 _ZN23AMRDeinterleavingBuffer15createNewBufferEv
       1609  648 00105556 _ZN23AMRDeinterleavingBuffer20deliverIncomingFrameEjP15RawAMRRTPSource7timeval
       1610  649 00105108 _ZN23AMRDeinterleavingBufferC1Ejj
       1611  64A 00104E9A _ZN23AMRDeinterleavingBufferC2Ejj
       1612  64B 001054AE _ZN23AMRDeinterleavingBufferD0Ev
       1613  64C 00105412 _ZN23AMRDeinterleavingBufferD1Ev
       1614  64D 00105376 _ZN23AMRDeinterleavingBufferD2Ev
       1615  64E 000DC57C _ZN23DirectedNetInterfaceSet3AddEPK20DirectedNetInterface
       1616  64F 000DC598 _ZN23DirectedNetInterfaceSet6RemoveEPK20DirectedNetInterface
       1617  650 000DC67C _ZN23DirectedNetInterfaceSet8Iterator4nextEv
       1618  651 000DC5D6 _ZN23DirectedNetInterfaceSet8IteratorC1ERS_
       1619  652 000DC5B2 _ZN23DirectedNetInterfaceSet8IteratorC2ERS_
       1620  653 000DC646 _ZN23DirectedNetInterfaceSet8IteratorD0Ev
       1621  654 000DC620 _ZN23DirectedNetInterfaceSet8IteratorD1Ev
       1622  655 000DC5FA _ZN23DirectedNetInterfaceSet8IteratorD2Ev
       1623  656 000DC4DA _ZN23DirectedNetInterfaceSetC1Ev
       1624  657 000DC4BA _ZN23DirectedNetInterfaceSetC2Ev
       1625  658 000DC546 _ZN23DirectedNetInterfaceSetD0Ev
       1626  659 000DC520 _ZN23DirectedNetInterfaceSetD1Ev
       1627  65A 000DC4FA _ZN23DirectedNetInterfaceSetD2Ev
       1628  65B 0011F592 _ZN23MPEG1or2FileServerDemux19newElementaryStreamEjh
       1629  65C 0011F528 _ZN23MPEG1or2FileServerDemux29newAudioServerMediaSubsessionEv
       1630  65D 0011F54C _ZN23MPEG1or2FileServerDemux29newVideoServerMediaSubsessionEjd
       1631  65E 0011F56E _ZN23MPEG1or2FileServerDemux32newAC3AudioServerMediaSubsessionEv
       1632  65F 0011F050 _ZN23MPEG1or2FileServerDemux9createNewER16UsageEnvironmentPKcj
       1633  660 0011F1E0 _ZN23MPEG1or2FileServerDemuxC1ER16UsageEnvironmentPKcj
       1634  661 0011F0F4 _ZN23MPEG1or2FileServerDemuxC2ER16UsageEnvironmentPKcj
       1635  662 0011F458 _ZN23MPEG1or2FileServerDemuxD0Ev
       1636  663 0011F392 _ZN23MPEG1or2FileServerDemuxD1Ev
       1637  664 0011F2CC _ZN23MPEG1or2FileServerDemuxD2Ev
       1638  665 000EBB16 _ZN23MPEG4LATMAudioRTPSource20processSpecialHeaderEP14BufferedPacketRj
       1639  666 000EBB04 _ZN23MPEG4LATMAudioRTPSource23omitLATMDataLengthFieldEv
       1640  667 000EB820 _ZN23MPEG4LATMAudioRTPSource9createNewER16UsageEnvironmentP9Groupsockhj
       1641  668 000EB9C0 _ZN23MPEG4LATMAudioRTPSourceC1ER16UsageEnvironmentP9Groupsockhj
       1642  669 000EB8D6 _ZN23MPEG4LATMAudioRTPSourceC2ER16UsageEnvironmentP9Groupsockhj
       1643  66A 000EBADE _ZN23MPEG4LATMAudioRTPSourceD0Ev
       1644  66B 000EBAC4 _ZN23MPEG4LATMAudioRTPSourceD1Ev
       1645  66C 000EBAAA _ZN23MPEG4LATMAudioRTPSourceD2Ev
       1646  66D 000E51E6 _ZN23MPEGProgramStreamParser13setParseStateE14MPEGParseState
       1647  66E 000E5730 _ZN23MPEGProgramStreamParser14parsePESPacketEv
       1648  66F 000E5300 _ZN23MPEGProgramStreamParser15parsePackHeaderEv
       1649  670 000E55A6 _ZN23MPEGProgramStreamParser17parseSystemHeaderEv
       1650  671 000E51FE _ZN23MPEGProgramStreamParser5parseEv
       1651  672 000E514E _ZN23MPEGProgramStreamParserC1EP13MPEG1or2DemuxP12FramedSource
       1652  673 000E5110 _ZN23MPEGProgramStreamParserC2EP13MPEG1or2DemuxP12FramedSource
       1653  674 000E51C0 _ZN23MPEGProgramStreamParserD0Ev
       1654  675 000E51A6 _ZN23MPEGProgramStreamParserD1Ev
       1655  676 000E518C _ZN23MPEGProgramStreamParserD2Ev
       1656  677 00118736 _ZN23MediaSubsessionIterator4nextEv
       1657  678 0011874E _ZN23MediaSubsessionIterator5resetEv
       1658  679 001186E2 _ZN23MediaSubsessionIteratorC1ER12MediaSession
       1659  67A 001186C4 _ZN23MediaSubsessionIteratorC2ER12MediaSession
       1660  67B 0011871C _ZN23MediaSubsessionIteratorD0Ev
       1661  67C 0011870E _ZN23MediaSubsessionIteratorD1Ev
       1662  67D 00118700 _ZN23MediaSubsessionIteratorD2Ev
       1663  67E 0012788A _ZN23QTGenericBufferedPacket21nextEnclosedFrameSizeERPhj
       1664  67F 0012780C _ZN23QTGenericBufferedPacketC1ER25QuickTimeGenericRTPSource
       1665  680 001277E8 _ZN23QTGenericBufferedPacketC2ER25QuickTimeGenericRTPSource
       1666  681 00127864 _ZN23QTGenericBufferedPacketD0Ev
       1667  682 0012784A _ZN23QTGenericBufferedPacketD1Ev
       1668  683 00127830 _ZN23QTGenericBufferedPacketD2Ev
       1669  684 000F3E4E _ZN24ADUBufferedPacketFactory15createNewPacketEP20MultiFramedRTPSource
       1670  685 00144EA0 _ZN24ADUBufferedPacketFactoryD0Ev
       1671  686 00144ED0 _ZN24ADUBufferedPacketFactoryD1Ev
       1672  687 001047FA _ZN24AMRBufferedPacketFactory15createNewPacketEP20MultiFramedRTPSource
       1673  688 00144EF0 _ZN24AMRBufferedPacketFactoryD0Ev
       1674  689 00144F20 _ZN24AMRBufferedPacketFactoryD1Ev
       1675  68A 000DCC46 _ZN24NetInterfaceTrafficStats11countPacketEj
       1676  68B 000DCC34 _ZN24NetInterfaceTrafficStatsC1Ev
       1677  68C 000DCC22 _ZN24NetInterfaceTrafficStatsC2Ev
       1678  68D 000E2782 _ZN25ByteStreamMultiFileSource14doGetNextFrameEv
       1679  68E 000E282A _ZN25ByteStreamMultiFileSource15onSourceClosureEPv
       1680  68F 000E283A _ZN25ByteStreamMultiFileSource16onSourceClosure1Ev
       1681  690 000E27FA _ZN25ByteStreamMultiFileSource17afterGettingFrameEPvjj7timevalj
       1682  691 000E26DA _ZN25ByteStreamMultiFileSource9createNewER16UsageEnvironmentPPKcjj
       1683  692 000E2182 _ZN25ByteStreamMultiFileSourceC1ER16UsageEnvironmentPPKcjj
       1684  693 000E1FF0 _ZN25ByteStreamMultiFileSourceC2ER16UsageEnvironmentPPKcjj
       1685  694 000E2590 _ZN25ByteStreamMultiFileSourceD0Ev
       1686  695 000E2452 _ZN25ByteStreamMultiFileSourceD1Ev
       1687  696 000E2314 _ZN25ByteStreamMultiFileSourceD2Ev
       1688  697 0011DAC4 _ZN25FileServerMediaSubsessionC1ER16UsageEnvironmentPKcj
       1689  698 0011D9F0 _ZN25FileServerMediaSubsessionC2ER16UsageEnvironmentPKcj
       1690  699 0011DC10 _ZN25FileServerMediaSubsessionD0Ev
       1691  69A 0011DBD4 _ZN25FileServerMediaSubsessionD1Ev
       1692  69B 0011DB98 _ZN25FileServerMediaSubsessionD2Ev
       1693  69C 000F73C8 _ZN25H263plusVideoStreamFramer14doGetNextFrameEv
       1694  69D 000F73F8 _ZN25H263plusVideoStreamFramer22continueReadProcessingEPvPhj7timeval
       1695  69E 000F7408 _ZN25H263plusVideoStreamFramer22continueReadProcessingEv
       1696  69F 000F6EB0 _ZN25H263plusVideoStreamFramer9createNewER16UsageEnvironmentP12FramedSource
       1697  6A0 000F7070 _ZN25H263plusVideoStreamFramerC1ER16UsageEnvironmentP12FramedSourcej
       1698  6A1 000F6F52 _ZN25H263plusVideoStreamFramerC2ER16UsageEnvironmentP12FramedSourcej
       1699  6A2 000F7302 _ZN25H263plusVideoStreamFramerD0Ev
       1700  6A3 000F7248 _ZN25H263plusVideoStreamFramerD1Ev
       1701  6A4 000F718E _ZN25H263plusVideoStreamFramerD2Ev
       1702  6A5 000F79D8 _ZN25H263plusVideoStreamParser13GetMaxBitrateEP15_MaxBitrate_CTXjh
       1703  6A6 000F768C _ZN25H263plusVideoStreamParser13setParseStateEv
       1704  6A7 000F7808 _ZN25H263plusVideoStreamParser14parseH263FrameEv
       1705  6A8 000F7AE4 _ZN25H263plusVideoStreamParser15GetTRDifferenceEhh
       1706  6A9 000F795C _ZN25H263plusVideoStreamParser16ParseShortHeaderEPhP9_H263INFO
       1707  6AA 000F7A48 _ZN25H263plusVideoStreamParser17CalculateDurationEh
       1708  6AB 000F7AA2 _ZN25H263plusVideoStreamParser17GetWidthAndHeightEhPtS0_
       1709  6AC 000F76AA _ZN25H263plusVideoStreamParser20registerReadInterestEPhj
       1710  6AD 000F766A _ZN25H263plusVideoStreamParser23restoreSavedParserStateEv
       1711  6AE 000F76D8 _ZN25H263plusVideoStreamParser5parseERy
       1712  6AF 000F7560 _ZN25H263plusVideoStreamParserC1EP25H263plusVideoStreamFramerP12FramedSource
       1713  6B0 000F74B0 _ZN25H263plusVideoStreamParserC2EP25H263plusVideoStreamFramerP12FramedSource
       1714  6B1 000F7644 _ZN25H263plusVideoStreamParserD0Ev
       1715  6B2 000F762A _ZN25H263plusVideoStreamParserD1Ev
       1716  6B3 000F7610 _ZN25H263plusVideoStreamParserD2Ev
       1717  6B4 00102A2A _ZN25H264BufferedPacketFactory15createNewPacketEP20MultiFramedRTPSource
       1718  6B5 00144F40 _ZN25H264BufferedPacketFactoryD0Ev
       1719  6B6 00144F70 _ZN25H264BufferedPacketFactoryD1Ev
       1720  6B7 001064FE _ZN25JPEGBufferedPacketFactory15createNewPacketEP20MultiFramedRTPSource
       1721  6B8 00144F90 _ZN25JPEGBufferedPacketFactoryD0Ev
       1722  6B9 00144FC0 _ZN25JPEGBufferedPacketFactoryD1Ev
       1723  6BA 000EBC40 _ZN25LATMBufferedPacketFactory15createNewPacketEP20MultiFramedRTPSource
       1724  6BB 00144FE0 _ZN25LATMBufferedPacketFactoryD0Ev
       1725  6BC 00145010 _ZN25LATMBufferedPacketFactoryD1Ev
       1726  6BD 000EAEE2 _ZN25MPEG1or2AudioStreamFramer10flushInputEv
       1727  6BE 000EAF3A _ZN25MPEG1or2AudioStreamFramer14doGetNextFrameEv
       1728  6BF 000EAF26 _ZN25MPEG1or2AudioStreamFramer21resetPresentationTimeE7timeval
       1729  6C0 000EAFFE _ZN25MPEG1or2AudioStreamFramer22continueReadProcessingEPvPhj7timeval
       1730  6C1 000EB02E _ZN25MPEG1or2AudioStreamFramer22continueReadProcessingEv
       1731  6C2 000EAF02 _ZN25MPEG1or2AudioStreamFramer5resetEv
       1732  6C3 000EAE3E _ZN25MPEG1or2AudioStreamFramer9createNewER16UsageEnvironmentP12FramedSourcej
       1733  6C4 000EAB0A _ZN25MPEG1or2AudioStreamFramerC1ER16UsageEnvironmentP12FramedSourcej
       1734  6C5 000EAA10 _ZN25MPEG1or2AudioStreamFramerC2ER16UsageEnvironmentP12FramedSourcej
       1735  6C6 000EAD78 _ZN25MPEG1or2AudioStreamFramerD0Ev
       1736  6C7 000EACBE _ZN25MPEG1or2AudioStreamFramerD1Ev
       1737  6C8 000EAC04 _ZN25MPEG1or2AudioStreamFramerD2Ev
       1738  6C9 000EB46A _ZN25MPEG1or2AudioStreamParser20registerReadInterestEPhj
       1739  6CA 000EB47E _ZN25MPEG1or2AudioStreamParser5parseERj
       1740  6CB 000EB19C _ZN25MPEG1or2AudioStreamParserC1EP25MPEG1or2AudioStreamFramerP12FramedSource
       1741  6CC 000EB0DC _ZN25MPEG1or2AudioStreamParserC2EP25MPEG1or2AudioStreamFramerP12FramedSource
       1742  6CD 000EB3B4 _ZN25MPEG1or2AudioStreamParserD0Ev
       1743  6CE 000EB308 _ZN25MPEG1or2AudioStreamParserD1Ev
       1744  6CF 000EB25C _ZN25MPEG1or2AudioStreamParserD2Ev
       1745  6D0 000E6CC2 _ZN25MPEG1or2VideoStreamFramer9createNewER16UsageEnvironmentP12FramedSourcejd
       1746  6D1 000E6B64 _ZN25MPEG1or2VideoStreamFramerC1ER16UsageEnvironmentP12FramedSourcejdj
       1747  6D2 000E6A60 _ZN25MPEG1or2VideoStreamFramerC2ER16UsageEnvironmentP12FramedSourcejdj
       1748  6D3 000E6C9C _ZN25MPEG1or2VideoStreamFramerD0Ev
       1749  6D4 000E6C82 _ZN25MPEG1or2VideoStreamFramerD1Ev
       1750  6D5 000E6C68 _ZN25MPEG1or2VideoStreamFramerD2Ev
       1751  6D6 000E6FCE _ZN25MPEG1or2VideoStreamParser10flushInputEv
       1752  6D7 000E7B8E _ZN25MPEG1or2VideoStreamParser10parseSliceEv
       1753  6D8 000E71CE _ZN25MPEG1or2VideoStreamParser11useSavedVSHEv
       1754  6D9 000E6F88 _ZN25MPEG1or2VideoStreamParser13setParseStateE14MPEGParseState
       1755  6DA 000E754A _ZN25MPEG1or2VideoStreamParser14parseGOPHeaderEj
       1756  6DB 000E7142 _ZN25MPEG1or2VideoStreamParser14saveCurrentVSHEv
       1757  6DC 000E7188 _ZN25MPEG1or2VideoStreamParser17needToUseSavedVSHEv
       1758  6DD 000E7850 _ZN25MPEG1or2VideoStreamParser18parsePictureHeaderEv
       1759  6DE 000E7212 _ZN25MPEG1or2VideoStreamParser24parseVideoSequenceHeaderEj
       1760  6DF 000E7004 _ZN25MPEG1or2VideoStreamParser5parseEv
       1761  6E0 000E6FA0 _ZN25MPEG1or2VideoStreamParser5resetEv
       1762  6E1 000E6E5E _ZN25MPEG1or2VideoStreamParserC1EP25MPEG1or2VideoStreamFramerP12FramedSourcejd
       1763  6E2 000E6D8E _ZN25MPEG1or2VideoStreamParserC2EP25MPEG1or2VideoStreamFramerP12FramedSourcejd
       1764  6E3 000E6F62 _ZN25MPEG1or2VideoStreamParserD0Ev
       1765  6E4 000E6F48 _ZN25MPEG1or2VideoStreamParserD1Ev
       1766  6E5 000E6F2E _ZN25MPEG1or2VideoStreamParserD2Ev
       1767  6E6 00103D36 _ZN25QCELPDeinterleavingBuffer13retrieveFrameEPhjRjS1_R7timeval
       1768  6E7 00103E7C _ZN25QCELPDeinterleavingBuffer15FrameDescriptorC1Ev
       1769  6E8 00103E60 _ZN25QCELPDeinterleavingBuffer15FrameDescriptorC2Ev
       1770  6E9 00103EE4 _ZN25QCELPDeinterleavingBuffer15FrameDescriptorD0Ev
       1771  6EA 00103EBE _ZN25QCELPDeinterleavingBuffer15FrameDescriptorD1Ev
       1772  6EB 00103E98 _ZN25QCELPDeinterleavingBuffer15FrameDescriptorD2Ev
       1773  6EC 00103B5C _ZN25QCELPDeinterleavingBuffer20deliverIncomingFrameEjhhht7timeval
       1774  6ED 00103860 _ZN25QCELPDeinterleavingBufferC1Ev
       1775  6EE 0010366A _ZN25QCELPDeinterleavingBufferC2Ev
       1776  6EF 00103AFA _ZN25QCELPDeinterleavingBufferD0Ev
       1777  6F0 00103AA8 _ZN25QCELPDeinterleavingBufferD1Ev
       1778  6F1 00103A56 _ZN25QCELPDeinterleavingBufferD2Ev
       1779  6F2 0012743A _ZN25QuickTimeGenericRTPSource20processSpecialHeaderEP14BufferedPacketRj
       1780  6F3 00126FC0 _ZN25QuickTimeGenericRTPSource9createNewER16UsageEnvironmentP9GroupsockhjPKc
       1781  6F4 001271D4 _ZN25QuickTimeGenericRTPSourceC1ER16UsageEnvironmentP9GroupsockhjPKc
       1782  6F5 00127078 _ZN25QuickTimeGenericRTPSourceC2ER16UsageEnvironmentP9GroupsockhjPKc
       1783  6F6 001273DC _ZN25QuickTimeGenericRTPSourceD0Ev
       1784  6F7 00127386 _ZN25QuickTimeGenericRTPSourceD1Ev
       1785  6F8 00127330 _ZN25QuickTimeGenericRTPSourceD2Ev
       1786  6F9 000F5F7E _ZN26MPEG2TransportStreamFramer14doGetNextFrameEv
       1787  6FA 000F5FEA _ZN26MPEG2TransportStreamFramer17afterGettingFrameEPvjj7timevalj
       1788  6FB 000F6004 _ZN26MPEG2TransportStreamFramer18afterGettingFrame1Ej7timeval
       1789  6FC 000F5FAA _ZN26MPEG2TransportStreamFramer19doStopGettingFramesEv
       1790  6FD 000F6164 _ZN26MPEG2TransportStreamFramer30updateTSPacketDurationEstimateEPhd
       1791  6FE 000F5A80 _ZN26MPEG2TransportStreamFramer9createNewER16UsageEnvironmentP12FramedSource
       1792  6FF 000F5BEE _ZN26MPEG2TransportStreamFramerC1ER16UsageEnvironmentP12FramedSource
       1793  700 000F5B20 _ZN26MPEG2TransportStreamFramerC2ER16UsageEnvironmentP12FramedSource
       1794  701 000F5E8C _ZN26MPEG2TransportStreamFramerD0Ev
       1795  702 000F5DA4 _ZN26MPEG2TransportStreamFramerD1Ev
       1796  703 000F5CBC _ZN26MPEG2TransportStreamFramerD2Ev
       1797  704 000ECABC _ZN26MPEG4GenericBufferedPacket21nextEnclosedFrameSizeERPhj
       1798  705 000ECA3E _ZN26MPEG4GenericBufferedPacketC1EP21MPEG4GenericRTPSource
       1799  706 000ECA1A _ZN26MPEG4GenericBufferedPacketC2EP21MPEG4GenericRTPSource
       1800  707 000ECA96 _ZN26MPEG4GenericBufferedPacketD0Ev
       1801  708 000ECA7C _ZN26MPEG4GenericBufferedPacketD1Ev
       1802  709 000ECA62 _ZN26MPEG4GenericBufferedPacketD2Ev
       1803  70A 00103020 _ZN26QCELPBufferedPacketFactory15createNewPacketEP20MultiFramedRTPSource
       1804  70B 00145030 _ZN26QCELPBufferedPacketFactoryD0Ev
       1805  70C 00145060 _ZN26QCELPBufferedPacketFactoryD1Ev
       1806  70D 00145080 _ZN26TunnelEncapsulationTrailer10byteOffsetEi
       1807  70E 0010E9E6 _ZN26UserAuthenticationDatabase13addUserRecordEPKcS1_
       1808  70F 0010EA5A _ZN26UserAuthenticationDatabase14lookupPasswordEPKc
       1809  710 0010EA12 _ZN26UserAuthenticationDatabase16removeUserRecordEPKc
       1810  711 0010E8E2 _ZN26UserAuthenticationDatabaseC1EPKcj
       1811  712 0010E8A4 _ZN26UserAuthenticationDatabaseC2EPKcj
       1812  713 0010E99C _ZN26UserAuthenticationDatabaseD0Ev
       1813  714 0010E95E _ZN26UserAuthenticationDatabaseD1Ev
       1814  715 0010E920 _ZN26UserAuthenticationDatabaseD2Ev
       1815  716 0011C334 _ZN28PassiveServerMediaSubsession11startStreamEjPvPFvS0_ES0_RtRj
       1816  717 0011C254 _ZN28PassiveServerMediaSubsession19getStreamParametersEjjRK4PortS2_ihhRjRhS3_RS0_S5_RPv
       1817  718 0011C080 _ZN28PassiveServerMediaSubsession8sdpLinesEv
       1818  719 0011BF70 _ZN28PassiveServerMediaSubsession9createNewER7RTPSinkP12RTCPInstance
       1819  71A 0011C048 _ZN28PassiveServerMediaSubsessionC1ER7RTPSinkP12RTCPInstance
       1820  71B 0011C010 _ZN28PassiveServerMediaSubsessionC2ER7RTPSinkP12RTCPInstance
       1821  71C 0011C3C6 _ZN28PassiveServerMediaSubsessionD0Ev
       1822  71D 0011C390 _ZN28PassiveServerMediaSubsessionD1Ev
       1823  71E 0011C35A _ZN28PassiveServerMediaSubsessionD2Ev
       1824  71F 00145090 _ZN29DeinterleavingFrameDescriptorD0Ev
       1825  720 001450D0 _ZN29DeinterleavingFrameDescriptorD1Ev
       1826  721 0012BF7C _ZN29MPEG2TransportStreamIndexFile10pcrFromBufEv
       1827  722 0012C006 _ZN29MPEG2TransportStreamIndexFile11rewindToVSHERm
       1828  723 0012BEE8 _ZN29MPEG2TransportStreamIndexFile15readIndexRecordEm
       1829  724 0012BE86 _ZN29MPEG2TransportStreamIndexFile17seekToIndexRecordEm
       1830  725 0012BE08 _ZN29MPEG2TransportStreamIndexFile18getPlayingDurationEv
       1831  726 0012BF2A _ZN29MPEG2TransportStreamIndexFile18readOneIndexRecordEm
       1832  727 0012BFCE _ZN29MPEG2TransportStreamIndexFile18tsPacketNumFromBufEv
       1833  728 0012BD98 _ZN29MPEG2TransportStreamIndexFile21readIndexRecordValuesEmRmRhS1_RfS1_
       1834  729 0012BBA0 _ZN29MPEG2TransportStreamIndexFile24lookupPCRFromTSPacketNumERmjRfS0_
       1835  72A 0012B918 _ZN29MPEG2TransportStreamIndexFile24lookupTSPacketNumFromNPTERfRmS1_
       1836  72B 0012BE40 _ZN29MPEG2TransportStreamIndexFile7openFidEv
       1837  72C 0012BF52 _ZN29MPEG2TransportStreamIndexFile8closeFidEv
       1838  72D 0012B5C0 _ZN29MPEG2TransportStreamIndexFile9createNewER16UsageEnvironmentPKc
       1839  72E 0012B440 _ZN29MPEG2TransportStreamIndexFileC1ER16UsageEnvironmentPKc
       1840  72F 0012B2C0 _ZN29MPEG2TransportStreamIndexFileC2ER16UsageEnvironmentPKc
       1841  730 0012B84A _ZN29MPEG2TransportStreamIndexFileD0Ev
       1842  731 0012B788 _ZN29MPEG2TransportStreamIndexFileD1Ev
       1843  732 0012B6C6 _ZN29MPEG2TransportStreamIndexFileD2Ev
       1844  733 0011D294 _ZN29OnDemandServerMediaSubsession10seekStreamEjPvf
       1845  734 0011D270 _ZN29OnDemandServerMediaSubsession11pauseStreamEjPv
       1846  735 0011D214 _ZN29OnDemandServerMediaSubsession11startStreamEjPvPFvS0_ES0_RtRj
       1847  736 0011D2F4 _ZN29OnDemandServerMediaSubsession12deleteStreamEjRPv
       1848  737 0011D390 _ZN29OnDemandServerMediaSubsession13getAuxSDPLineEP7RTPSinkP12FramedSource
       1849  738 0011D2C4 _ZN29OnDemandServerMediaSubsession14setStreamScaleEjPvf
       1850  739 0011D3AE _ZN29OnDemandServerMediaSubsession16seekStreamSourceEP12FramedSourcef
       1851  73A 0011CAE2 _ZN29OnDemandServerMediaSubsession19getStreamParametersEjjRK4PortS2_ihhRjRhS3_RS0_S5_RPv
       1852  73B 0011D3B4 _ZN29OnDemandServerMediaSubsession20setStreamSourceScaleEP12FramedSourcef
       1853  73C 0011D3BA _ZN29OnDemandServerMediaSubsession22setSDPLinesFromRTPSinkEP7RTPSinkP12FramedSource
       1854  73D 0011C8F2 _ZN29OnDemandServerMediaSubsession8sdpLinesEv
       1855  73E 0011C502 _ZN29OnDemandServerMediaSubsessionC1ER16UsageEnvironmentjt
       1856  73F 0011C410 _ZN29OnDemandServerMediaSubsessionC2ER16UsageEnvironmentjt
       1857  740 0011C7EC _ZN29OnDemandServerMediaSubsessionD0Ev
       1858  741 0011C6F0 _ZN29OnDemandServerMediaSubsessionD1Ev
       1859  742 0011C5F4 _ZN29OnDemandServerMediaSubsessionD2Ev
       1860  743 0011BB2C _ZN29ServerMediaSubsessionIterator4nextEv
       1861  744 0011BB44 _ZN29ServerMediaSubsessionIterator5resetEv
       1862  745 0011BAD8 _ZN29ServerMediaSubsessionIteratorC1ER18ServerMediaSession
       1863  746 0011BABA _ZN29ServerMediaSubsessionIteratorC2ER18ServerMediaSession
       1864  747 0011BB12 _ZN29ServerMediaSubsessionIteratorD0Ev
       1865  748 0011BB04 _ZN29ServerMediaSubsessionIteratorD1Ev
       1866  749 0011BAF6 _ZN29ServerMediaSubsessionIteratorD2Ev
       1867  74A 000EA2BA _ZN30MPEG4VideoStreamDiscreteFramer14doGetNextFrameEv
       1868  74B 000EA640 _ZN30MPEG4VideoStreamDiscreteFramer15getNextFrameBitERh
       1869  74C 000EA6F0 _ZN30MPEG4VideoStreamDiscreteFramer16analyzeVOLHeaderEv
       1870  74D 000EA696 _ZN30MPEG4VideoStreamDiscreteFramer16getNextFrameBitsEjRj
       1871  74E 000EA2E0 _ZN30MPEG4VideoStreamDiscreteFramer17afterGettingFrameEPvjj7timevalj
       1872  74F 000EA300 _ZN30MPEG4VideoStreamDiscreteFramer18afterGettingFrame1Ejj7timevalj
       1873  750 000EA110 _ZN30MPEG4VideoStreamDiscreteFramer9createNewER16UsageEnvironmentP12FramedSource
       1874  751 000EA208 _ZN30MPEG4VideoStreamDiscreteFramerC1ER16UsageEnvironmentP12FramedSource
       1875  752 000EA1B0 _ZN30MPEG4VideoStreamDiscreteFramerC2ER16UsageEnvironmentP12FramedSource
       1876  753 000EA294 _ZN30MPEG4VideoStreamDiscreteFramerD0Ev
       1877  754 000EA27A _ZN30MPEG4VideoStreamDiscreteFramerD1Ev
       1878  755 000EA260 _ZN30MPEG4VideoStreamDiscreteFramerD2Ev
       1879  756 001278E4 _ZN30QTGenericBufferedPacketFactory15createNewPacketEP20MultiFramedRTPSource
       1880  757 00145100 _ZN30QTGenericBufferedPacketFactoryD0Ev
       1881  758 00145130 _ZN30QTGenericBufferedPacketFactoryD1Ev
       1882  759 000E600C _ZN31MPEG1or2DemuxedElementaryStream14doGetNextFrameEv
       1883  75A 000E606C _ZN31MPEG1or2DemuxedElementaryStream17afterGettingFrameEPvjj7timevalj
       1884  75B 000E608C _ZN31MPEG1or2DemuxedElementaryStream18afterGettingFrame1Ejj7timevalj
       1885  75C 000E603A _ZN31MPEG1or2DemuxedElementaryStream19doStopGettingFramesEv
       1886  75D 000E5CDE _ZN31MPEG1or2DemuxedElementaryStreamC1ER16UsageEnvironmenthR13MPEG1or2Demux
       1887  75E 000E5BC0 _ZN31MPEG1or2DemuxedElementaryStreamC2ER16UsageEnvironmenthR13MPEG1or2Demux
       1888  75F 000E5F54 _ZN31MPEG1or2DemuxedElementaryStreamD0Ev
       1889  760 000E5EA8 _ZN31MPEG1or2DemuxedElementaryStreamD1Ev
       1890  761 000E5DFC _ZN31MPEG1or2DemuxedElementaryStreamD2Ev
       1891  762 000F43D6 _ZN31MPEG2TransportStreamMultiplexor14doGetNextFrameEv
       1892  763 000F44F8 _ZN31MPEG2TransportStreamMultiplexor15handleNewBufferEPhjiN13MPEG1or2Demux3SCRE
       1893  764 000F4856 _ZN31MPEG2TransportStreamMultiplexor16deliverPATPacketEv
       1894  765 000F4916 _ZN31MPEG2TransportStreamMultiplexor16deliverPMTPacketEj
       1895  766 000F4640 _ZN31MPEG2TransportStreamMultiplexor19deliverDataToClientEhPhjRj
       1896  767 000F4A34 _ZN31MPEG2TransportStreamMultiplexor19setProgramStreamMapEj
       1897  768 000F425E _ZN31MPEG2TransportStreamMultiplexorC1ER16UsageEnvironment
       1898  769 000F4140 _ZN31MPEG2TransportStreamMultiplexorC2ER16UsageEnvironment
       1899  76A 000F43B0 _ZN31MPEG2TransportStreamMultiplexorD0Ev
       1900  76B 000F4396 _ZN31MPEG2TransportStreamMultiplexorD1Ev
       1901  76C 000F437C _ZN31MPEG2TransportStreamMultiplexorD2Ev
       1902  76D 000F5526 _ZN32MPEG2TransportStreamFromESSource14awaitNewBufferEPh
       1903  76E 000F51EC _ZN32MPEG2TransportStreamFromESSource17addNewAudioSourceEP12FramedSourcei
       1904  76F 000F55A6 _ZN32MPEG2TransportStreamFromESSource17addNewInputSourceEP12FramedSourcehi
       1905  770 000F51AE _ZN32MPEG2TransportStreamFromESSource17addNewVideoSourceEP12FramedSourcei
       1906  771 000F54F8 _ZN32MPEG2TransportStreamFromESSource19doStopGettingFramesEv
       1907  772 000F5110 _ZN32MPEG2TransportStreamFromESSource9createNewER16UsageEnvironment
       1908  773 000F5266 _ZN32MPEG2TransportStreamFromESSourceC1ER16UsageEnvironment
       1909  774 000F5220 _ZN32MPEG2TransportStreamFromESSourceC2ER16UsageEnvironment
       1910  775 000F542C _ZN32MPEG2TransportStreamFromESSourceD0Ev
       1911  776 000F536C _ZN32MPEG2TransportStreamFromESSourceD1Ev
       1912  777 000F52AC _ZN32MPEG2TransportStreamFromESSourceD2Ev
       1913  778 0011E830 _ZN33AMRAudioFileServerMediaSubsession16createNewRTPSinkEP9GroupsockhP12FramedSource
       1914  779 0011E80E _ZN33AMRAudioFileServerMediaSubsession21createNewStreamSourceEjRj
       1915  77A 0011E6C0 _ZN33AMRAudioFileServerMediaSubsession9createNewER16UsageEnvironmentPKcj
       1916  77B 0011E78C _ZN33AMRAudioFileServerMediaSubsessionC1ER16UsageEnvironmentPKcj
       1917  77C 0011E764 _ZN33AMRAudioFileServerMediaSubsessionC2ER16UsageEnvironmentPKcj
       1918  77D 0011E7E8 _ZN33AMRAudioFileServerMediaSubsessionD0Ev
       1919  77E 0011E7CE _ZN33AMRAudioFileServerMediaSubsessionD1Ev
       1920  77F 0011E7B4 _ZN33AMRAudioFileServerMediaSubsessionD2Ev
       1921  780 0011EDCC _ZN33MP3AudioFileServerMediaSubsession15testScaleFactorERf
       1922  781 0011ED92 _ZN33MP3AudioFileServerMediaSubsession16createNewRTPSinkEP9GroupsockhP12FramedSource
       1923  782 0011EBDE _ZN33MP3AudioFileServerMediaSubsession16seekStreamSourceEP12FramedSourcef
       1924  783 0011EC4E _ZN33MP3AudioFileServerMediaSubsession20setStreamSourceScaleEP12FramedSourcef
       1925  784 0011ECC8 _ZN33MP3AudioFileServerMediaSubsession21createNewStreamSourceEjRj
       1926  785 0011E860 _ZN33MP3AudioFileServerMediaSubsession9createNewER16UsageEnvironmentPKcjjP12Interleaving
       1927  786 0011E94E _ZN33MP3AudioFileServerMediaSubsessionC1ER16UsageEnvironmentPKcjjP12Interleaving
       1928  787 0011E90A _ZN33MP3AudioFileServerMediaSubsessionC2ER16UsageEnvironmentPKcjjP12Interleaving
       1929  788 0011EB12 _ZN33MP3AudioFileServerMediaSubsessionD0Ev
       1930  789 0011EA52 _ZN33MP3AudioFileServerMediaSubsessionD1Ev
       1931  78A 0011E992 _ZN33MP3AudioFileServerMediaSubsessionD2Ev
       1932  78B 000E80F4 _ZN33MPEG1or2VideoStreamDiscreteFramer14doGetNextFrameEv
       1933  78C 000E811A _ZN33MPEG1or2VideoStreamDiscreteFramer17afterGettingFrameEPvjj7timevalj
       1934  78D 000E813A _ZN33MPEG1or2VideoStreamDiscreteFramer18afterGettingFrame1Ejj7timevalj
       1935  78E 000E7EE0 _ZN33MPEG1or2VideoStreamDiscreteFramer9createNewER16UsageEnvironmentP12FramedSourcejd
       1936  78F 000E8012 _ZN33MPEG1or2VideoStreamDiscreteFramerC1ER16UsageEnvironmentP12FramedSourcejd
       1937  790 000E7F8A _ZN33MPEG1or2VideoStreamDiscreteFramerC2ER16UsageEnvironmentP12FramedSourcejd
       1938  791 000E80CE _ZN33MPEG1or2VideoStreamDiscreteFramerD0Ev
       1939  792 000E80B4 _ZN33MPEG1or2VideoStreamDiscreteFramerD1Ev
       1940  793 000E809A _ZN33MPEG1or2VideoStreamDiscreteFramerD2Ev
       1941  794 000F5034 _ZN33MPEG2TransportStreamFromPESSource14awaitNewBufferEPh
       1942  795 000F5062 _ZN33MPEG2TransportStreamFromPESSource17afterGettingFrameEPvjj7timevalj
       1943  796 000F5082 _ZN33MPEG2TransportStreamFromPESSource18afterGettingFrame1Ejj7timevalj
       1944  797 000F501E _ZN33MPEG2TransportStreamFromPESSource19doStopGettingFramesEv
       1945  798 000F4B80 _ZN33MPEG2TransportStreamFromPESSource9createNewER16UsageEnvironmentP31MPEG1or2DemuxedElementaryStream
       1946  799 000F4CE4 _ZN33MPEG2TransportStreamFromPESSourceC1ER16UsageEnvironmentP31MPEG1or2DemuxedElementaryStream
       1947  79A 000F4C20 _ZN33MPEG2TransportStreamFromPESSourceC2ER16UsageEnvironmentP31MPEG1or2DemuxedElementaryStream
       1948  79B 000F4F44 _ZN33MPEG2TransportStreamFromPESSourceD0Ev
       1949  79C 000F4E76 _ZN33MPEG2TransportStreamFromPESSourceD1Ev
       1950  79D 000F4DA8 _ZN33MPEG2TransportStreamFromPESSourceD2Ev
       1951  79E 000ECB94 _ZN33MPEG4GenericBufferedPacketFactory15createNewPacketEP20MultiFramedRTPSource
       1952  79F 00145150 _ZN33MPEG4GenericBufferedPacketFactoryD0Ev
       1953  7A0 00145180 _ZN33MPEG4GenericBufferedPacketFactoryD1Ev
       1954  7A1 0011E622 _ZN33WAVAudioFileServerMediaSubsession15testScaleFactorERf
       1955  7A2 0011E50C _ZN33WAVAudioFileServerMediaSubsession16createNewRTPSinkEP9GroupsockhP12FramedSource
       1956  7A3 0011E2D2 _ZN33WAVAudioFileServerMediaSubsession16seekStreamSourceEP12FramedSourcef
       1957  7A4 0011E33E _ZN33WAVAudioFileServerMediaSubsession20setStreamSourceScaleEP12FramedSourcef
       1958  7A5 0011E384 _ZN33WAVAudioFileServerMediaSubsession21createNewStreamSourceEjRj
       1959  7A6 0011E170 _ZN33WAVAudioFileServerMediaSubsession9createNewER16UsageEnvironmentPKcjj
       1960  7A7 0011E248 _ZN33WAVAudioFileServerMediaSubsessionC1ER16UsageEnvironmentPKcjj
       1961  7A8 0011E218 _ZN33WAVAudioFileServerMediaSubsessionC2ER16UsageEnvironmentPKcjj
       1962  7A9 0011E2AC _ZN33WAVAudioFileServerMediaSubsessionD0Ev
       1963  7AA 0011E292 _ZN33WAVAudioFileServerMediaSubsessionD1Ev
       1964  7AB 0011E278 _ZN33WAVAudioFileServerMediaSubsessionD2Ev
       1965  7AC 00120D00 _ZN34ADTSAudioFileServerMediaSubsession16createNewRTPSinkEP9GroupsockhP12FramedSource
       1966  7AD 00120CDE _ZN34ADTSAudioFileServerMediaSubsession21createNewStreamSourceEjRj
       1967  7AE 00120B90 _ZN34ADTSAudioFileServerMediaSubsession9createNewER16UsageEnvironmentPKcj
       1968  7AF 00120C5C _ZN34ADTSAudioFileServerMediaSubsessionC1ER16UsageEnvironmentPKcj
       1969  7B0 00120C34 _ZN34ADTSAudioFileServerMediaSubsessionC2ER16UsageEnvironmentPKcj
       1970  7B1 00120CB8 _ZN34ADTSAudioFileServerMediaSubsessionD0Ev
       1971  7B2 00120C9E _ZN34ADTSAudioFileServerMediaSubsessionD1Ev
       1972  7B3 00120C84 _ZN34ADTSAudioFileServerMediaSubsessionD2Ev
       1973  7B4 0012A994 _ZN35MPEG2IFrameIndexFromTransportStream10analyzePATEPhj
       1974  7B5 0012A9DA _ZN35MPEG2IFrameIndexFromTransportStream10analyzePMTEPhj
       1975  7B6 0012AC02 _ZN35MPEG2IFrameIndexFromTransportStream10parseFrameEv
       1976  7B7 0012A438 _ZN35MPEG2IFrameIndexFromTransportStream14doGetNextFrameEv
       1977  7B8 0012B04E _ZN35MPEG2IFrameIndexFromTransportStream15parseToNextCodeERh
       1978  7B9 0012A4E0 _ZN35MPEG2IFrameIndexFromTransportStream17afterGettingFrameEPvjj7timevalj
       1979  7BA 0012A500 _ZN35MPEG2IFrameIndexFromTransportStream18afterGettingFrame1Ejj7timevalj
       1980  7BB 0012B0CC _ZN35MPEG2IFrameIndexFromTransportStream18compactParseBufferEv
       1981  7BC 0012AA9C _ZN35MPEG2IFrameIndexFromTransportStream18deliverIndexRecordEv
       1982  7BD 0012A8E6 _ZN35MPEG2IFrameIndexFromTransportStream18handleInputClosureEPv
       1983  7BE 0012A8F6 _ZN35MPEG2IFrameIndexFromTransportStream19handleInputClosure1Ev
       1984  7BF 0012B11C _ZN35MPEG2IFrameIndexFromTransportStream9addToTailEP11IndexRecord
       1985  7C0 00129EA0 _ZN35MPEG2IFrameIndexFromTransportStream9createNewER16UsageEnvironmentP12FramedSource
       1986  7C1 0012A06A _ZN35MPEG2IFrameIndexFromTransportStreamC1ER16UsageEnvironmentP12FramedSource
       1987  7C2 00129F40 _ZN35MPEG2IFrameIndexFromTransportStreamC2ER16UsageEnvironmentP12FramedSource
       1988  7C3 0012A350 _ZN35MPEG2IFrameIndexFromTransportStreamD0Ev
       1989  7C4 0012A272 _ZN35MPEG2IFrameIndexFromTransportStreamD1Ev
       1990  7C5 0012A194 _ZN35MPEG2IFrameIndexFromTransportStreamD2Ev
       1991  7C6 0012C2BA _ZN35MPEG2TransportStreamTrickModeFilter14doGetNextFrameEv
       1992  7C7 0012C698 _ZN35MPEG2TransportStreamTrickModeFilter15onSourceClosureEPv
       1993  7C8 0012C6A8 _ZN35MPEG2TransportStreamTrickModeFilter16onSourceClosure1Ev
       1994  7C9 0012C64E _ZN35MPEG2TransportStreamTrickModeFilter17afterGettingFrameEPvjj7timevalj
       1995  7CA 0012C662 _ZN35MPEG2TransportStreamTrickModeFilter18afterGettingFrame1Ej
       1996  7CB 0012C4C0 _ZN35MPEG2TransportStreamTrickModeFilter19doStopGettingFramesEv
       1997  7CC 0012C612 _ZN35MPEG2TransportStreamTrickModeFilter19readTransportPacketEm
       1998  7CD 0012C5C0 _ZN35MPEG2TransportStreamTrickModeFilter21seekToTransportPacketEm
       1999  7CE 0012C4E4 _ZN35MPEG2TransportStreamTrickModeFilter23attemptDeliveryToClientEv
       2000  7CF 0012C296 _ZN35MPEG2TransportStreamTrickModeFilter6seekToEmm
       2001  7D0 0012C0A0 _ZN35MPEG2TransportStreamTrickModeFilter9createNewER16UsageEnvironmentP12FramedSourceP29MPEG2TransportStreamIndexFilei
       2002  7D1 0012C1C2 _ZN35MPEG2TransportStreamTrickModeFilterC1ER16UsageEnvironmentP12FramedSourceP29MPEG2TransportStreamIndexFilei
       2003  7D2 0012C148 _ZN35MPEG2TransportStreamTrickModeFilterC2ER16UsageEnvironmentP12FramedSourceP29MPEG2TransportStreamIndexFilei
       2004  7D3 0012C270 _ZN35MPEG2TransportStreamTrickModeFilterD0Ev
       2005  7D4 0012C256 _ZN35MPEG2TransportStreamTrickModeFilterD1Ev
       2006  7D5 0012C23C _ZN35MPEG2TransportStreamTrickModeFilterD2Ev
       2007  7D6 0011DE52 _ZN35MPEG4VideoFileServerMediaSubsession13getAuxSDPLineEP7RTPSinkP12FramedSource
       2008  7D7 0011DF00 _ZN35MPEG4VideoFileServerMediaSubsession16createNewRTPSinkEP9GroupsockhP12FramedSource
       2009  7D8 0011DDCA _ZN35MPEG4VideoFileServerMediaSubsession18afterPlayingDummy1Ev
       2010  7D9 0011DE04 _ZN35MPEG4VideoFileServerMediaSubsession19checkForAuxSDPLine1Ev
       2011  7DA 0011DEAA _ZN35MPEG4VideoFileServerMediaSubsession21createNewStreamSourceEjRj
       2012  7DB 0011DC60 _ZN35MPEG4VideoFileServerMediaSubsession9createNewER16UsageEnvironmentPKcj
       2013  7DC 0011DD32 _ZN35MPEG4VideoFileServerMediaSubsessionC1ER16UsageEnvironmentPKcj
       2014  7DD 0011DD04 _ZN35MPEG4VideoFileServerMediaSubsessionC2ER16UsageEnvironmentPKcj
       2015  7DE 0011DD94 _ZN35MPEG4VideoFileServerMediaSubsessionD0Ev
       2016  7DF 0011DD7A _ZN35MPEG4VideoFileServerMediaSubsessionD1Ev
       2017  7E0 0011DD60 _ZN35MPEG4VideoFileServerMediaSubsessionD2Ev
       2018  7E1 0011FCF8 _ZN36MPEG1or2DemuxedServerMediaSubsession16createNewRTPSinkEP9GroupsockhP12FramedSource
       2019  7E2 0011FD8C _ZN36MPEG1or2DemuxedServerMediaSubsession16seekStreamSourceEP12FramedSourcef
       2020  7E3 0011FC22 _ZN36MPEG1or2DemuxedServerMediaSubsession21createNewStreamSourceEjRj
       2021  7E4 0011FA50 _ZN36MPEG1or2DemuxedServerMediaSubsession9createNewER23MPEG1or2FileServerDemuxhjjd
       2022  7E5 0011FB6A _ZN36MPEG1or2DemuxedServerMediaSubsessionC1ER23MPEG1or2FileServerDemuxhjjd
       2023  7E6 0011FB0C _ZN36MPEG1or2DemuxedServerMediaSubsessionC2ER23MPEG1or2FileServerDemuxhjjd
       2024  7E7 0011FBFC _ZN36MPEG1or2DemuxedServerMediaSubsessionD0Ev
       2025  7E8 0011FBE2 _ZN36MPEG1or2DemuxedServerMediaSubsessionD1Ev
       2026  7E9 0011FBC8 _ZN36MPEG1or2DemuxedServerMediaSubsessionD2Ev
       2027  7EA 0011E0E8 _ZN38H263plusVideoFileServerMediaSubsession13getAuxSDPLineEP7RTPSinkP12FramedSource
       2028  7EB 0011E148 _ZN38H263plusVideoFileServerMediaSubsession16createNewRTPSinkEP9GroupsockhP12FramedSource
       2029  7EC 0011E09A _ZN38H263plusVideoFileServerMediaSubsession19checkForAuxSDPLine1Ev
       2030  7ED 0011E0F2 _ZN38H263plusVideoFileServerMediaSubsession21createNewStreamSourceEjRj
       2031  7EE 0011DF30 _ZN38H263plusVideoFileServerMediaSubsession9createNewER16UsageEnvironmentPKcj
       2032  7EF 0011E002 _ZN38H263plusVideoFileServerMediaSubsessionC1ER16UsageEnvironmentPKcj
       2033  7F0 0011DFD4 _ZN38H263plusVideoFileServerMediaSubsessionC2ER16UsageEnvironmentPKcj
       2034  7F1 0011E064 _ZN38H263plusVideoFileServerMediaSubsessionD0Ev
       2035  7F2 0011E04A _ZN38H263plusVideoFileServerMediaSubsessionD1Ev
       2036  7F3 0011E030 _ZN38H263plusVideoFileServerMediaSubsessionD2Ev
       2037  7F4 0011F034 _ZN38MPEG1or2VideoFileServerMediaSubsession16createNewRTPSinkEP9GroupsockhP12FramedSource
       2038  7F5 0011EFCC _ZN38MPEG1or2VideoFileServerMediaSubsession21createNewStreamSourceEjRj
       2039  7F6 0011EE40 _ZN38MPEG1or2VideoFileServerMediaSubsession9createNewER16UsageEnvironmentPKcjjd
       2040  7F7 0011EF30 _ZN38MPEG1or2VideoFileServerMediaSubsessionC1ER16UsageEnvironmentPKcjjd
       2041  7F8 0011EEEE _ZN38MPEG1or2VideoFileServerMediaSubsessionC2ER16UsageEnvironmentPKcjjd
       2042  7F9 0011EFA6 _ZN38MPEG1or2VideoFileServerMediaSubsessionD0Ev
       2043  7FA 0011EF8C _ZN38MPEG1or2VideoFileServerMediaSubsessionD1Ev
       2044  7FB 0011EF72 _ZN38MPEG1or2VideoFileServerMediaSubsessionD2Ev
       2045  7FC 0012058E _ZN39MPEG2TransportFileServerMediaSubsession10seekStreamEjPvf
       2046  7FD 00120546 _ZN39MPEG2TransportFileServerMediaSubsession11pauseStreamEjPv
       2047  7FE 001204C2 _ZN39MPEG2TransportFileServerMediaSubsession11startStreamEjPvPFvS0_ES0_RtRj
       2048  7FF 0012061C _ZN39MPEG2TransportFileServerMediaSubsession12deleteStreamEjRPv
       2049  800 001208B0 _ZN39MPEG2TransportFileServerMediaSubsession12lookupClientEj
       2050  801 001205DA _ZN39MPEG2TransportFileServerMediaSubsession14setStreamScaleEjPvf
       2051  802 0012080C _ZN39MPEG2TransportFileServerMediaSubsession15testScaleFactorERf
       2052  803 001207DE _ZN39MPEG2TransportFileServerMediaSubsession16createNewRTPSinkEP9GroupsockhP12FramedSource
       2053  804 00120664 _ZN39MPEG2TransportFileServerMediaSubsession21createNewStreamSourceEjRj
       2054  805 0011FE80 _ZN39MPEG2TransportFileServerMediaSubsession9createNewER16UsageEnvironmentPKcS3_j
       2055  806 00120072 _ZN39MPEG2TransportFileServerMediaSubsessionC1ER16UsageEnvironmentPKcP29MPEG2TransportStreamIndexFilej
       2056  807 0011FF6E _ZN39MPEG2TransportFileServerMediaSubsessionC2ER16UsageEnvironmentPKcP29MPEG2TransportStreamIndexFilej
       2057  808 001203A2 _ZN39MPEG2TransportFileServerMediaSubsessionD0Ev
       2058  809 0012028C _ZN39MPEG2TransportFileServerMediaSubsessionD1Ev
       2059  80A 00120176 _ZN39MPEG2TransportFileServerMediaSubsessionD2Ev
       2060  80B 000DD59C _ZN4PortC1Et
       2061  80C 000DD580 _ZN4PortC2Et
       2062  80D 000D8C3A _ZN5Scope5cleanEv
       2063  80E 000D8C10 _ZN5Scope6assignEhPKc
       2064  80F 000D8CBA _ZN5ScopeC1ERKS_
       2065  810 000D8C80 _ZN5ScopeC1EhPKc
       2066  811 000D8C9C _ZN5ScopeC2ERKS_
       2067  812 000D8C64 _ZN5ScopeC2EhPKc
       2068  813 000D8D4A _ZN5ScopeD1Ev
       2069  814 000D8D36 _ZN5ScopeD2Ev
       2070  815 000D8CD8 _ZN5ScopeaSERKS_
       2071  816 000E0D18 _ZN6Medium12lookupByNameER16UsageEnvironmentPKcRPS_
       2072  817 000E0D82 _ZN6Medium5closeEPS_
       2073  818 000E0D66 _ZN6Medium5closeER16UsageEnvironmentPKc
       2074  819 000E0C48 _ZN6MediumC1ER16UsageEnvironment
       2075  81A 000E0BF0 _ZN6MediumC2ER16UsageEnvironment
       2076  81B 000E0CE8 _ZN6MediumD0Ev
       2077  81C 000E0CC4 _ZN6MediumD1Ev
       2078  81D 000E0CA0 _ZN6MediumD2Ev
       2079  81E 00172A50 _ZN6Socket10DebugLevelE
       2080  81F 000DCA1C _ZN6Socket10changePortE4Port
       2081  820 000DC76C _ZN6SocketC1ER16UsageEnvironment4Portj
       2082  821 000DC696 _ZN6SocketC2ER16UsageEnvironment4Portj
       2083  822 000DC976 _ZN6SocketD0Ev
       2084  823 000DC8DC _ZN6SocketD1Ev
       2085  824 000DC842 _ZN6SocketD2Ev
       2086  825 00123A36 _ZN7Count64pLEj
       2087  826 000D7DE4 _ZN7NoReuseC1Ev
       2088  827 000D7DD4 _ZN7NoReuseC2Ev
       2089  828 000D7E04 _ZN7NoReuseD1Ev
       2090  829 000D7DF4 _ZN7NoReuseD2Ev
       2091  82A 00106F0E _ZN7RTPSink10auxSDPLineEv
       2092  82B 001065B0 _ZN7RTPSink12lookupByNameER16UsageEnvironmentPKcRPS_
       2093  82C 00106DCE _ZN7RTPSink15getTotalBitrateERjRd
       2094  82D 00106D94 _ZN7RTPSink19presetNextTimestampEv
       2095  82E 00106D08 _ZN7RTPSink21convertToRTPTimestampE7timeval
       2096  82F 001067F0 _ZN7RTPSinkC1ER16UsageEnvironmentP9GroupsockhjPKcj
       2097  830 00106626 _ZN7RTPSinkC2ER16UsageEnvironmentP9GroupsockhjPKcj
       2098  831 00106BE6 _ZN7RTPSinkD0Ev
       2099  832 00106AD0 _ZN7RTPSinkD1Ev
       2100  833 001069BA _ZN7RTPSinkD2Ev
       2101  834 0025AC80 _ZN7Segment10headerSizeE
       2102  835 000EE706 _ZN7Segment8dataHereEv
       2103  836 000DF764 _ZN7TimevalmIERK13DelayInterval
       2104  837 000DF730 _ZN7TimevalpLERK13DelayInterval
       2105  838 000E0DF0 _ZN7_Tables12getOurTablesER16UsageEnvironment
       2106  839 000E0EB4 _ZN7_Tables17reclaimIfPossibleEv
       2107  83A 000E0F08 _ZN7_TablesC1ER16UsageEnvironment
       2108  83B 000E0EE6 _ZN7_TablesC2ER16UsageEnvironment
       2109  83C 000E0F46 _ZN7_TablesD0Ev
       2110  83D 000E0F38 _ZN7_TablesD1Ev
       2111  83E 000E0F2A _ZN7_TablesD2Ev
       2112  83F 000FA04C _ZN8FileSink15continuePlayingEv
       2113  840 000FA084 _ZN8FileSink17afterGettingFrameEPvjj7timevalj
       2114  841 000FA106 _ZN8FileSink18afterGettingFrame1Ej7timeval
       2115  842 000FA09E _ZN8FileSink7addDataEPhj7timeval
       2116  843 000F9F54 _ZN8FileSink9createNewER16UsageEnvironmentPKcjj
       2117  844 000F9B42 _ZN8FileSinkC1ER16UsageEnvironmentP6_iobufjPKc
       2118  845 000F9A30 _ZN8FileSinkC2ER16UsageEnvironmentP6_iobufjPKc
       2119  846 000F9E4C _ZN8FileSinkD0Ev
       2120  847 000F9D50 _ZN8FileSinkD1Ev
       2121  848 000F9C54 _ZN8FileSinkD2Ev
       2122  849 000D9174 _ZN8GroupEId4initERK7in_addrS2_tRK5Scopej
       2123  84A 000D9024 _ZN8GroupEIdC1ERK7in_addrS2_tj
       2124  84B 000D8E52 _ZN8GroupEIdC1ERK7in_addrtRK5Scopej
       2125  84C 000D9144 _ZN8GroupEIdC1Ev
       2126  84D 000D8F20 _ZN8GroupEIdC2ERK7in_addrS2_tj
       2127  84E 000D8D84 _ZN8GroupEIdC2ERK7in_addrtRK5Scopej
       2128  84F 000D9128 _ZN8GroupEIdC2Ev
       2129  850 000FACC2 _ZN8HTTPSink13appendPortNumER16UsageEnvironmentRK4Port
       2130  851 000FAF6E _ZN8HTTPSink14isUseableFrameEPhj
       2131  852 000FAC26 _ZN8HTTPSink14setUpOurSocketER16UsageEnvironmentR4Port
       2132  853 000FAF78 _ZN8HTTPSink15continuePlayingEv
       2133  854 000FB09C _ZN8HTTPSink17afterGettingFrameEPvjj7timevalj
       2134  855 000FB0B6 _ZN8HTTPSink18afterGettingFrame1Ej7timeval
       2135  856 000FB072 _ZN8HTTPSink18ourOnSourceClosureEPv
       2136  857 000FAB10 _ZN8HTTPSink9createNewER16UsageEnvironment4Port
       2137  858 000FAD38 _ZN8HTTPSinkC1ER16UsageEnvironmenti
       2138  859 000FAD06 _ZN8HTTPSinkC2ER16UsageEnvironmenti
       2139  85A 000FAEBA _ZN8HTTPSinkD0Ev
       2140  85B 000FAE12 _ZN8HTTPSinkD1Ev
       2141  85C 000FAD6A _ZN8HTTPSinkD2Ev
       2142  85D 0010AF6E _ZN8SDESItemC1EhPKh
       2143  85E 0010AF10 _ZN8SDESItemC2EhPKh
       2144  85F 000E6122 _ZN8TimeCodeC1Ev
       2145  860 000E60F0 _ZN8TimeCodeC2Ev
       2146  861 000E6170 _ZN8TimeCodeD0Ev
       2147  862 000E6162 _ZN8TimeCodeD1Ev
       2148  863 000E6154 _ZN8TimeCodeD2Ev
       2149  864 000E618A _ZN8TimeCodeeqERKS_
       2150  865 0012D754 _ZN9BitVector5setupEPhjj
       2151  866 0012D8D6 _ZN9BitVector7get1BitEv
       2152  867 0012D836 _ZN9BitVector7getBitsEj
       2153  868 0012D7EC _ZN9BitVector7put1BitEj
       2154  869 0012D774 _ZN9BitVector7putBitsEjj
       2155  86A 0012D916 _ZN9BitVector8skipBitsEj
       2156  86B 0012D73A _ZN9BitVectorC1EPhjj
       2157  86C 0012D720 _ZN9BitVectorC2EPhjj
       2158  86D 0011F984 _ZN9DummySink15continuePlayingEv
       2159  86E 0011F9B2 _ZN9DummySink17afterGettingFrameEPvjj7timevalj
       2160  86F 0011F9C2 _ZN9DummySink18afterGettingFrame1Ev
       2161  870 0011F8F6 _ZN9DummySinkC1ER13MPEG1or2Demuxj
       2162  871 0011F8C2 _ZN9DummySinkC2ER13MPEG1or2Demuxj
       2163  872 0011F95E _ZN9DummySinkD0Ev
       2164  873 0011F944 _ZN9DummySinkD1Ev
       2165  874 0011F92A _ZN9DummySinkD2Ev
       2166  875 000DB6E2 _ZN9Groupsock10handleReadEPhjRjR11sockaddr_in
       2167  876 0026A750 _ZN9Groupsock13statsIncomingE
       2168  877 0026A758 _ZN9Groupsock13statsOutgoingE
       2169  878 000DB370 _ZN9Groupsock14addDestinationERK7in_addrRK4Port
       2170  879 000DB512 _ZN9Groupsock17multicastSendOnlyEv
       2171  87A 000DB478 _ZN9Groupsock17removeDestinationERK7in_addrRK4Port
       2172  87B 000DB8B0 _ZN9Groupsock19wasLoopedBackFromUsER16UsageEnvironmentR11sockaddr_in
       2173  87C 0026A760 _ZN9Groupsock20statsRelayedIncomingE
       2174  87D 0026A768 _ZN9Groupsock20statsRelayedOutgoingE
       2175  87E 000DB4E6 _ZN9Groupsock21removeAllDestinationsEv
       2176  87F 000DB8F6 _ZN9Groupsock24outputToAllMembersExceptEP20DirectedNetInterfacehPhjj
       2177  880 000DB0B8 _ZN9Groupsock27changeDestinationParametersERK7in_addr4Porti
       2178  881 000DB558 _ZN9Groupsock6outputER16UsageEnvironmenthPhjP20DirectedNetInterface
       2179  882 000DA2BE _ZN9GroupsockC1ER16UsageEnvironmentRK7in_addr4Porth
       2180  883 000DA88C _ZN9GroupsockC1ER16UsageEnvironmentRK7in_addrS4_4Port
       2181  884 000D9FB4 _ZN9GroupsockC2ER16UsageEnvironmentRK7in_addr4Porth
       2182  885 000DA5C8 _ZN9GroupsockC2ER16UsageEnvironmentRK7in_addrS4_4Port
       2183  886 000DAEE4 _ZN9GroupsockD0Ev
       2184  887 000DAD1A _ZN9GroupsockD1Ev
       2185  888 000DAB50 _ZN9GroupsockD2Ev
       2186  889 000D7CE4 _ZN9HashTable10RemoveNextEv
       2187  88A 000E06A8 _ZN9HashTable6createEi
       2188  88B 000E0746 _ZN9HashTable8Iterator6createERS_
       2189  88C 000D7CA0 _ZN9HashTable8IteratorC1Ev
       2190  88D 000D7C92 _ZN9HashTable8IteratorC2Ev
       2191  88E 000D7CCA _ZN9HashTable8IteratorD0Ev
       2192  88F 000D7CBC _ZN9HashTable8IteratorD1Ev
       2193  890 000D7CAE _ZN9HashTable8IteratorD2Ev
       2194  891 000D7C4E _ZN9HashTableC1Ev
       2195  892 000D7C40 _ZN9HashTableC2Ev
       2196  893 000D7C78 _ZN9HashTableD0Ev
       2197  894 000D7C6A _ZN9HashTableD1Ev
       2198  895 000D7C5C _ZN9HashTableD2Ev
       2199  896 000F969E _ZN9MediaSink11stopPlayingEv
       2200  897 000F95AE _ZN9MediaSink12lookupByNameER16UsageEnvironmentPKcRPS_
       2201  898 000F962C _ZN9MediaSink12startPlayingER11MediaSourcePFvPvES2_
       2202  899 000F96EC _ZN9MediaSink15onSourceClosureEPv
       2203  89A 000F961A _ZN9MediaSink24sourceIsCompatibleWithUsER11MediaSource
       2204  89B 000F9378 _ZN9MediaSinkC1ER16UsageEnvironment
       2205  89C 000F9350 _ZN9MediaSinkC2ER16UsageEnvironment
       2206  89D 000F94F0 _ZN9MediaSinkD0Ev
       2207  89E 000F9448 _ZN9MediaSinkD1Ev
       2208  89F 000F93A0 _ZN9MediaSinkD2Ev
       2209  8A0 000FF9A0 _ZN9RTPSource12lookupByNameER16UsageEnvironmentPKcRPS_
       2210  8A1 000FFA0C _ZN9RTPSource28hasBeenSynchronizedUsingRTCPEv
       2211  8A2 000FFB7A _ZN9RTPSourceC1ER16UsageEnvironmentP9Groupsockhj
       2212  8A3 000FFA24 _ZN9RTPSourceC2ER16UsageEnvironmentP9Groupsockhj
       2213  8A4 000FFEC4 _ZN9RTPSourceD0Ev
       2214  8A5 000FFDCA _ZN9RTPSourceD1Ev
       2215  8A6 000FFCD0 _ZN9RTPSourceD2Ev
       2216  8A7 001165B8 _ZN9SIPClient10processURLEPKc
       2217  8A8 00115E7E _ZN9SIPClient10sendINVITEEv
       2218  8A9 00116D18 _ZN9SIPClient11getResponseERPcj
       2219  8AA 00116732 _ZN9SIPClient11parseSIPURLER16UsageEnvironmentPKcR10NetAddressRt
       2220  8AB 00116CBA _ZN9SIPClient11sendRequestEPKcj
       2221  8AC 00115A48 _ZN9SIPClient13timerAHandlerEPv
       2222  8AD 00115ACC _ZN9SIPClient13timerBHandlerEPv
       2223  8AE 00115B44 _ZN9SIPClient13timerDHandlerEPv
       2224  8AF 00115560 _ZN9SIPClient14setProxyServerEjt
       2225  8B0 00115EC4 _ZN9SIPClient15getResponseCodeEv
       2226  8B1 00116E40 _ZN9SIPClient17parseResponseCodeEPKcRj
       2227  8B2 0011622E _ZN9SIPClient18inviteWithPasswordEPKcS1_S1_
       2228  8B3 00115B7C _ZN9SIPClient20doInviteStateMachineEj
       2229  8B4 00115A28 _ZN9SIPClient21inviteResponseHandlerEPvi
       2230  8B5 00115E2C _ZN9SIPClient23doInviteStateTerminatedEj
       2231  8B6 00116BA4 _ZN9SIPClient25createAuthenticatorStringEPK13AuthenticatorPKcS4_
       2232  8B7 00116A94 _ZN9SIPClient27parseSIPURLUsernamePasswordEPKcRPcS3_
       2233  8B8 00115440 _ZN9SIPClient5resetEv
       2234  8B9 001155FC _ZN9SIPClient6inviteEPKcP13Authenticator
       2235  8BA 001156EA _ZN9SIPClient7invite1EP13Authenticator
       2236  8BB 001163E6 _ZN9SIPClient7sendACKEv
       2237  8BC 001164CC _ZN9SIPClient7sendBYEEv
       2238  8BD 00114440 _ZN9SIPClient9createNewER16UsageEnvironmenthPKciS3_
       2239  8BE 00114A7E _ZN9SIPClientC1ER16UsageEnvironmenthPKciS3_
       2240  8BF 001144F8 _ZN9SIPClientC2ER16UsageEnvironmenthPKciS3_
       2241  8C0 001152D0 _ZN9SIPClientD0Ev
       2242  8C1 0011516A _ZN9SIPClientD1Ev
       2243  8C2 00115004 _ZN9SIPClientD2Ev
       2244  8C3 0010F476 _ZNK10RTSPClient12isRTSPClientEv
       2245  8C4 0010BE6C _ZNK10RTSPServer12isRTSPServerEv
       2246  8C5 0010B762 _ZNK10RTSPServer13rtspURLPrefixEv
       2247  8C6 0010B800 _ZNK10RTSPServer7rtspURLEPK18ServerMediaSession
       2248  8C7 000E12AC _ZNK11MediaSource11isRTPSourceEv
       2249  8C8 000E1354 _ZNK11MediaSource13getAttributesEv
       2250  8C9 000E12A2 _ZNK11MediaSource14isFramedSourceEv
       2251  8CA 000E12DE _ZNK11MediaSource16isAMRAudioSourceEv
       2252  8CB 000E12D4 _ZNK11MediaSource17isJPEGVideoSourceEv
       2253  8CC 000E12CA _ZNK11MediaSource23isH264VideoStreamFramerEv
       2254  8CD 000E12C0 _ZNK11MediaSource24isMPEG4VideoStreamFramerEv
       2255  8CE 000E12B6 _ZNK11MediaSource27isMPEG1or2VideoStreamFramerEv
       2256  8CF 000E1298 _ZNK11MediaSource8MIMEtypeEv
       2257  8D0 000E128E _ZNK11MediaSource8isSourceEv
       2258  8D1 001084B6 _ZNK12AudioRTPSink12sdpMediaTypeEv
       2259  8D2 000E1920 _ZNK12FramedFilter13getAttributesEv
       2260  8D3 000E18FE _ZNK12FramedFilter8MIMEtypeEv
       2261  8D4 000E15E6 _ZNK12FramedSource12maxFrameSizeEv
       2262  8D5 000E146E _ZNK12FramedSource14isFramedSourceEv
       2263  8D6 00117614 _ZNK12MediaSession14isMediaSessionEv
       2264  8D7 00109F1E _ZNK12RTCPInstance10numMembersEv
       2265  8D8 00109F14 _ZNK12RTCPInstance14isRTCPInstanceEv
       2266  8D9 00108586 _ZNK12VideoRTPSink12sdpMediaTypeEv
       2267  8DA 0012E0DA _ZNK13Authenticator21computeDigestResponseEPKcS1_
       2268  8DB 0012E258 _ZNK13Authenticator21reclaimDigestResponseEPKc
       2269  8DC 000FB690 _ZNK13MP3ADURTPSink17specialHeaderSizeEv
       2270  8DD 000ED21E _ZNK13MP3FileSource12filePlayTimeEv
       2271  8DE 000ED25A _ZNK13MP3FileSource13getAttributesEv
       2272  8DF 000ED0E2 _ZNK13MP3FileSource8MIMEtypeEv
       2273  8E0 000FE7EA _ZNK13SimpleRTPSink12sdpMediaTypeEv
       2274  8E1 000FE7DC _ZNK13SimpleRTPSink30frameCanAppearAfterPacketStartEPKhj
       2275  8E2 000F8ADE _ZNK14AMRAudioSource16isAMRAudioSourceEv
       2276  8E3 000E0830 _ZNK14BasicHashTable10keyMatchesEPKcS1_
       2277  8E4 000E05E8 _ZNK14BasicHashTable10numEntriesEv
       2278  8E5 000E0AAE _ZNK14BasicHashTable16hashIndexFromKeyEPKc
       2279  8E6 000E05C0 _ZNK14BasicHashTable6LookupEPKc
       2280  8E7 000E07E4 _ZNK14BasicHashTable9lookupKeyEPKcRj
       2281  8E8 0012D31C _ZNK14DarwinInjector16isDarwinInjectorEv
       2282  8E9 000F0732 _ZNK14MP3StreamState12filePlayTimeEv
       2283  8EA 000F0A88 _ZNK14MP3StreamState13getAttributesEPcj
       2284  8EB 000F06C8 _ZNK14MP3StreamState20currentFramePlayTimeEv
       2285  8EC 000DD518 _ZNK14NetAddressList12firstAddressEv
       2286  8ED 000FDF10 _ZNK15AC3AudioRTPSink17specialHeaderSizeEv
       2287  8EE 000FDE60 _ZNK15AC3AudioRTPSink30frameCanAppearAfterPacketStartEPKhj
       2288  8EF 000FEB64 _ZNK15AMRAudioRTPSink17specialHeaderSizeEv
       2289  8F0 000FEB5A _ZNK15AMRAudioRTPSink30frameCanAppearAfterPacketStartEPKhj
       2290  8F1 000FE07E _ZNK15GSMAudioRTPSink30frameCanAppearAfterPacketStartEPKhj
       2291  8F2 000F8A16 _ZNK15JPEGVideoSource17isJPEGVideoSourceEv
       2292  8F3 000F3E10 _ZNK15MP3ADURTPSource8MIMEtypeEv
       2293  8F4 00118DA2 _ZNK15MediaSubsession11playEndTimeEv
       2294  8F5 0011A234 _ZNK15MediaSubsession25connectionEndpointAddressEv
       2295  8F6 00104636 _ZNK15RawAMRRTPSource8MIMEtypeEv
       2296  8F7 00102218 _ZNK15SimpleRTPSource8MIMEtypeEv
       2297  8F8 000EDB00 _ZNK16ADUFromMP3Source8MIMEtypeEv
       2298  8F9 000FD868 _ZNK16H264VideoRTPSink30frameCanAppearAfterPacketStartEPKhj
       2299  8FA 000FE386 _ZNK16JPEGVideoRTPSink17specialHeaderSizeEv
       2300  8FB 000FE20C _ZNK16JPEGVideoRTPSink30frameCanAppearAfterPacketStartEPKhj
       2301  8FC 000F024C _ZNK16MP3ADUTranscoder13getAttributesEv
       2302  8FD 000EE206 _ZNK16MP3FromADUSource8MIMEtypeEv
       2303  8FE 000E102E _ZNK16MediaLookupTable6lookupEPKc
       2304  8FF 000F894E _ZNK17AC3AudioRTPSource8MIMEtypeEv
       2305  900 00100AD8 _ZNK17RTPReceptionStats20totNumKBytesReceivedEv
       2306  901 00100B10 _ZNK17RTPReceptionStats6jitterEv
       2307  902 00102EDC _ZNK17RawQCELPRTPSource8MIMEtypeEv
       2308  903 0010242E _ZNK18H261VideoRTPSource8MIMEtypeEv
       2309  904 001027F6 _ZNK18H264VideoRTPSource8MIMEtypeEv
       2310  905 00106482 _ZNK18JPEGVideoRTPSource8MIMEtypeEv
       2311  906 00107B4C _ZNK18MultiFramedRTPSink17specialHeaderSizeEv
       2312  907 0010821A _ZNK18MultiFramedRTPSink18isTooBigForAPacketEj
       2313  908 00107B56 _ZNK18MultiFramedRTPSink23frameSpecificHeaderSizeEv
       2314  909 00107B2E _ZNK18MultiFramedRTPSink28allowFragmentationAfterStartEv
       2315  90A 00107B42 _ZNK18MultiFramedRTPSink30frameCanAppearAfterPacketStartEPKhj
       2316  90B 00107B38 _ZNK18MultiFramedRTPSink33allowOtherFramesAfterLastFragmentEv
       2317  90C 0011B736 _ZNK18ServerMediaSession20isServerMediaSessionEv
       2318  90D 0011B6B4 _ZNK18ServerMediaSession8durationEv
       2319  90E 000E320E _ZNK18WAVAudioFileSource11numPCMBytesEv
       2320  90F 000E44CC _ZNK18WAVAudioFileSource15getAverageLevelEv
       2321  910 000FCCE0 _ZNK19MPEG4ESVideoRTPSink28allowFragmentationAfterStartEv
       2322  911 000FCCEA _ZNK19MPEG4ESVideoRTPSink30frameCanAppearAfterPacketStartEPKhj
       2323  912 000FC9FA _ZNK19MPEG4GenericRTPSink12sdpMediaTypeEv
       2324  913 000FC9F0 _ZNK19MPEG4GenericRTPSink17specialHeaderSizeEv
       2325  914 000FC96C _ZNK19MPEG4GenericRTPSink30frameCanAppearAfterPacketStartEPKhj
       2326  915 001005A2 _ZNK19RTPReceptionStatsDB6lookupEj
       2327  916 000F807C _ZNK20AC3AudioStreamFramer20currentFramePlayTimeEv
       2328  917 000FD0E2 _ZNK20H263plusVideoRTPSink17specialHeaderSizeEv
       2329  918 000FCFCC _ZNK20H263plusVideoRTPSink30frameCanAppearAfterPacketStartEPKhj
       2330  919 000FB2FA _ZNK20MPEG1or2AudioRTPSink17specialHeaderSizeEv
       2331  91A 000FBB3C _ZNK20MPEG1or2VideoRTPSink17specialHeaderSizeEv
       2332  91B 000FB84C _ZNK20MPEG1or2VideoRTPSink28allowFragmentationAfterStartEv
       2333  91C 000FB856 _ZNK20MPEG1or2VideoRTPSink30frameCanAppearAfterPacketStartEPKhj
       2334  91D 001074E4 _ZNK20RTPTransmissionStats14roundTripDelayEv
       2335  91E 001075A4 _ZNK20RTPTransmissionStats20packetsLostBetweenRREv
       2336  91F 0010758A _ZNK20RTPTransmissionStats26packetsReceivedSinceLastRREv
       2337  920 000DDFF4 _ZNK21BasicUsageEnvironment8getErrnoEv
       2338  921 000EA8D2 _ZNK21H264VideoStreamFramer23isH264VideoStreamFramerEv
       2339  922 000EC1BC _ZNK21MPEG4ESVideoRTPSource8MIMEtypeEv
       2340  923 000ECA0C _ZNK21MPEG4GenericRTPSource8MIMEtypeEv
       2341  924 000FC210 _ZNK21MPEG4LATMAudioRTPSink30frameCanAppearAfterPacketStartEPKhj
       2342  925 0011BED4 _ZNK21ServerMediaSubsession12rangeSDPLineEv
       2343  926 0011BEB6 _ZNK21ServerMediaSubsession8durationEv
       2344  927 000DDB5C _ZNK22BasicUsageEnvironment012getResultMsgEv
       2345  928 000F6EA0 _ZNK22H263plusVideoRTPSource8MIMEtypeEv
       2346  929 000EB80C _ZNK22MPEG1or2AudioRTPSource8MIMEtypeEv
       2347  92A 000F412C _ZNK22MPEG1or2VideoRTPSource8MIMEtypeEv
       2348  92B 000E8562 _ZNK22MPEG4VideoStreamFramer14getConfigBytesERj
       2349  92C 000E89E8 _ZNK22MPEG4VideoStreamFramer24isMPEG4VideoStreamFramerEv
       2350  92D 00107292 _ZNK22RTPTransmissionStatsDB6lookupEj
       2351  92E 000EBB44 _ZNK23MPEG4LATMAudioRTPSource8MIMEtypeEv
       2352  92F 000E56B0 _ZNK23MPEGProgramStreamParser17isSpecialStreamIdEh
       2353  930 000DCC6C _ZNK24NetInterfaceTrafficStats15haveSeenTrafficEv
       2354  931 000F73EE _ZNK25H263plusVideoStreamFramer27isH263plusVideoStreamFramerEv
       2355  932 000EAF60 _ZNK25MPEG1or2AudioStreamFramer20currentFramePlayTimeEv
       2356  933 000E6D6E _ZNK25MPEG1or2VideoStreamFramer13getCurrentPTSEv
       2357  934 000E6D84 _ZNK25MPEG1or2VideoStreamFramer27isMPEG1or2VideoStreamFramerEv
       2358  935 001277C2 _ZNK25QuickTimeGenericRTPSource8MIMEtypeEv
       2359  936 000E6062 _ZNK31MPEG1or2DemuxedElementaryStream12maxFrameSizeEv
       2360  937 000E6056 _ZNK31MPEG1or2DemuxedElementaryStream8MIMEtypeEv
       2361  938 0011EE28 _ZNK33MP3AudioFileServerMediaSubsession8durationEv
       2362  939 0011E6AE _ZNK33WAVAudioFileServerMediaSubsession8durationEv
       2363  93A 0011FE6A _ZNK36MPEG1or2DemuxedServerMediaSubsession8durationEv
       2364  93B 001208A2 _ZNK39MPEG2TransportFileServerMediaSubsession8durationEv
       2365  93C 000D8D5E _ZNK5Scope13publicKeySizeEv
       2366  93D 000E0DBE _ZNK6Medium12isRTSPClientEv
       2367  93E 000E0DC8 _ZNK6Medium12isRTSPServerEv
       2368  93F 000E0DD2 _ZNK6Medium14isMediaSessionEv
       2369  940 000E0DB4 _ZNK6Medium14isRTCPInstanceEv
       2370  941 000E0DE6 _ZNK6Medium16isDarwinInjectorEv
       2371  942 000E0DDC _ZNK6Medium20isServerMediaSessionEv
       2372  943 000E0DAA _ZNK6Medium6isSinkEv
       2373  944 000E0DA0 _ZNK6Medium8isSourceEv
       2374  945 00106E34 _ZNK7RTPSink10rtpmapLineEv
       2375  946 00106E2A _ZNK7RTPSink12sdpMediaTypeEv
       2376  947 0010661C _ZNK7RTPSink9isRTPSinkEv
       2377  948 000DF700 _ZNK7TimevalgeERKS_
       2378  949 000D9160 _ZNK8GroupEId5isSSMEv
       2379  94A 0010AFCC _ZNK8SDESItem9totalSizeEv
       2380  94B 000F95A4 _ZNK9MediaSink6isSinkEv
       2381  94C 000F9710 _ZNK9MediaSink9isRTPSinkEv
       2382  94D 000FFA1A _ZNK9RTPSource11isRTPSourceEv
       2383  94E 000FFFC8 _ZNK9RTPSource13getAttributesEv
       2384  94F 002616F0 _ZTI10DelayQueue
       2385  950 00261700 _ZTI10HandlerSet
       2386  951 00261710 _ZTI10NetAddress
       2387  952 00261720 _ZTI10RTSPClient
       2388  953 00261730 _ZTI10RTSPServer
       2389  954 00261740 _ZTI10destRecord
       2390  955 00261750 _ZTI11AVIFileSink
       2391  956 00261760 _ZTI11IndexRecord
       2392  957 00261770 _ZTI11MediaSource
       2393  958 00261780 _ZTI11StreamState
       2394  959 00261790 _ZTI12AlarmHandler
       2395  95A 002617A0 _ZTI12AudioRTPSink
       2396  95B 002617B0 _ZTI12BasicUDPSink
       2397  95C 002617C0 _ZTI12DeviceSource
       2398  95D 002617D0 _ZTI12EndianSwap16
       2399  95E 002617E0 _ZTI12FramedFilter
       2400  95F 002617F0 _ZTI12FramedSource
       2401  960 00261800 _ZTI12Interleaving
       2402  961 00261810 _ZTI12MediaSession
       2403  962 00261820 _ZTI12NetInterface
       2404  963 00261830 _ZTI12OutputSocket
       2405  964 00261840 _ZTI12RTCPInstance
       2406  965 00261850 _ZTI12RTPInterface
       2407  966 00261860 _ZTI12StreamParser
       2408  967 00261870 _ZTI12VideoRTPSink
       2409  968 00261880 _ZTI13Authenticator
       2410  969 00261890 _ZTI13MP3ADURTPSink
       2411  96A 002618A0 _ZTI13MP3FileSource
       2412  96B 002618B0 _ZTI13MP3HTTPSource
       2413  96C 002618C0 _ZTI13MP3Transcoder
       2414  96D 002618D0 _ZTI13MPEG1or2Demux
       2415  96E 002618E0 _ZTI13SimpleRTPSink
       2416  96F 002618F0 _ZTI13TaskScheduler
       2417  970 00261900 _ZTI14AMRAudioSource
       2418  971 00261910 _ZTI14AudioPortNames
       2419  972 00261920 _ZTI14BasicHashTable
       2420  973 00261930 _ZTI14BasicUDPSource
       2421  974 00261940 _ZTI14BufferedPacket
       2422  975 00261950 _ZTI14DarwinInjector
       2423  976 00261960 _ZTI14MP3StreamState
       2424  977 00261970 _ZTI14NetAddressList
       2425  978 00261980 _ZTI15AC3AudioRTPSink
       2426  979 00261990 _ZTI15AMRAudioRTPSink
       2427  97A 002619A0 _ZTI15ChunkDescriptor
       2428  97B 002619B0 _ZTI15DelayQueueEntry
       2429  97C 002619C0 _ZTI15GSMAudioRTPSink
       2430  97D 002619D0 _ZTI15HandlerIterator
       2431  97E 002619E0 _ZTI15JPEGVideoSource
       2432  97F 002619F0 _ZTI15MP3ADURTPSource
       2433  980 00261A00 _ZTI15MediaSubsession
       2434  981 00261A10 _ZTI15RawAMRRTPSource
       2435  982 00261A20 _ZTI15SimpleRTPSource
       2436  983 00261A30 _ZTI15tcpStreamRecord
       2437  984 00261A40 _ZTI16ADUFromMP3Source
       2438  985 00261A50 _ZTI16AMRAudioFileSink
       2439  986 00261A60 _ZTI16AMRDeinterleaver
       2440  987 00261A70 _ZTI16AudioInputDevice
       2441  988 00261A80 _ZTI16FramedFileSource
       2442  989 00261A90 _ZTI16H264VideoRTPSink
       2443  98A 00261AA0 _ZTI16JPEGVideoRTPSink
       2444  98B 00261AB0 _ZTI16MP3ADUTranscoder
       2445  98C 00261AC0 _ZTI16MP3FromADUSource
       2446  98D 00261AD0 _ZTI16MediaLookupTable
       2447  98E 00261AE0 _ZTI16SocketDescriptor
       2448  98F 00261AF0 _ZTI16SubsessionBuffer
       2449  990 00261B00 _ZTI16UsageEnvironment
       2450  991 00261B10 _ZTI17AC3AudioRTPSource
       2451  992 00261B20 _ZTI17ADUBufferedPacket
       2452  993 00261B30 _ZTI17AMRBufferedPacket
       2453  994 00261B40 _ZTI17H264FUAFragmenter
       2454  995 00261B50 _ZTI17H264VideoFileSink
       2455  996 00261B60 _ZTI17HandlerDescriptor
       2456  997 00261B70 _ZTI17MP3ADUinterleaver
       2457  998 00261B80 _ZTI17QuickTimeFileSink
       2458  999 00261B90 _ZTI17RTPReceptionStats
       2459  99A 00261BA0 _ZTI17RawQCELPRTPSource
       2460  99B 00261BB0 _ZTI17SocketLookupTable
       2461  99C 00261BC0 _ZTI17SubsessionIOState
       2462  99D 00261BD0 _ZTI18AMRAudioFileSource
       2463  99E 00261BE0 _ZTI18BasicTaskScheduler
       2464  99F 00261BF0 _ZTI18H261VideoRTPSource
       2465  9A0 00261C00 _ZTI18H264BufferedPacket
       2466  9A1 00261C10 _ZTI18H264VideoRTPSource
       2467  9A2 00261C20 _ZTI18InterleavingFrames
       2468  9A3 00261C30 _ZTI18JPEGBufferedPacket
       2469  9A4 00261C40 _ZTI18JPEGVideoRTPSource
       2470  9A5 00261C50 _ZTI18LATMBufferedPacket
       2471  9A6 00261C60 _ZTI18MultiFramedRTPSink
       2472  9A7 00261C70 _ZTI18QCELPDeinterleaver
       2473  9A8 00261C80 _ZTI18RTCPMemberDatabase
       2474  9A9 00261C90 _ZTI18ServerMediaSession
       2475  9AA 00261CA0 _ZTI18WAVAudioFileSource
       2476  9AB 00261CB0 _ZTI19ADTSAudioFileSource
       2477  9AC 00261CC0 _ZTI19BasicTaskScheduler0
       2478  9AD 00261CD0 _ZTI19InputESSourceRecord
       2479  9AE 00261CE0 _ZTI19MP3ADUdeinterleaver
       2480  9AF 00261CF0 _ZTI19MPEG4ESVideoRTPSink
       2481  9B0 00261D00 _ZTI19MPEG4GenericRTPSink
       2482  9B1 00261D10 _ZTI19QCELPBufferedPacket
       2483  9B2 00261D20 _ZTI19RTPReceptionStatsDB
       2484  9B3 00261D30 _ZTI20AC3AudioStreamFramer
       2485  9B4 00261D40 _ZTI20AC3AudioStreamParser
       2486  9B5 00261D50 _ZTI20AVISubsessionIOState
       2487  9B6 00261D60 _ZTI20ByteStreamFileSource
       2488  9B7 00261D70 _ZTI20DeinterleavingFrames
       2489  9B8 00261D80 _ZTI20DirectedNetInterface
       2490  9B9 00261D90 _ZTI20H263plusVideoRTPSink
       2491  9BA 00261DA0 _ZTI20MPEG1or2AudioRTPSink
       2492  9BB 00261DB0 _ZTI20MPEG1or2VideoRTPSink
       2493  9BC 00261DC0 _ZTI20MultiFramedRTPSource
       2494  9BD 00261DD0 _ZTI20RTPTransmissionStats
       2495  9BE 00261DE0 _ZTI21BasicUsageEnvironment
       2496  9BF 00261DF0 _ZTI21BufferedPacketFactory
       2497  9C0 00261E00 _ZTI21H264VideoStreamFramer
       2498  9C1 00261E10 _ZTI21MP3ADUinterleaverBase
       2499  9C2 00261E20 _ZTI21MPEG1or2VideoHTTPSink
       2500  9C3 00261E30 _ZTI21MPEG4ESVideoRTPSource
       2501  9C4 00261E40 _ZTI21MPEG4GenericRTPSource
       2502  9C5 00261E50 _ZTI21MPEG4LATMAudioRTPSink
       2503  9C6 00261E60 _ZTI21MPEGVideoStreamFramer
       2504  9C7 00261E70 _ZTI21MPEGVideoStreamParser
       2505  9C8 00261E80 _ZTI21ServerMediaSubsession
       2506  9C9 00261E90 _ZTI22AddressPortLookupTable
       2507  9CA 00261EA0 _ZTI22BasicUsageEnvironment0
       2508  9CB 00261EB0 _ZTI22H263plusVideoRTPSource
       2509  9CC 00261EC0 _ZTI22HostFromNetworkOrder16
       2510  9CD 00261ED0 _ZTI22MPEG1or2AudioRTPSource
       2511  9CE 00261EE0 _ZTI22MPEG1or2VideoRTPSource
       2512  9CF 00261EF0 _ZTI22MPEG4VideoStreamFramer
       2513  9D0 00261F00 _ZTI22MPEG4VideoStreamParser
       2514  9D1 00261F10 _ZTI22NetworkFromHostOrder16
       2515  9D2 00261F20 _ZTI22PCMFromuLawAudioSource
       2516  9D3 00261F30 _ZTI22RTPTransmissionStatsDB
       2517  9D4 00261F40 _ZTI22ReorderingPacketBuffer
       2518  9D5 00261F50 _ZTI22uLawFromPCMAudioSource
       2519  9D6 00261F60 _ZTI23AMRDeinterleavingBuffer
       2520  9D7 00261F70 _ZTI23DirectedNetInterfaceSet
       2521  9D8 00261F80 _ZTI23MPEG1or2FileServerDemux
       2522  9D9 00261F90 _ZTI23MPEG4LATMAudioRTPSource
       2523  9DA 00261FA0 _ZTI23MPEGProgramStreamParser
       2524  9DB 00261FB0 _ZTI23MediaSubsessionIterator
       2525  9DC 00261FC0 _ZTI23QTGenericBufferedPacket
       2526  9DD 00261FD0 _ZTI24ADUBufferedPacketFactory
       2527  9DE 00261FE0 _ZTI24AMRBufferedPacketFactory
       2528  9DF 00261FF0 _ZTI25ByteStreamMultiFileSource
       2529  9E0 00262000 _ZTI25FileServerMediaSubsession
       2530  9E1 00262010 _ZTI25H263plusVideoStreamFramer
       2531  9E2 00262020 _ZTI25H263plusVideoStreamParser
       2532  9E3 00262030 _ZTI25H264BufferedPacketFactory
       2533  9E4 00262040 _ZTI25JPEGBufferedPacketFactory
       2534  9E5 00262050 _ZTI25LATMBufferedPacketFactory
       2535  9E6 00262060 _ZTI25MPEG1or2AudioStreamFramer
       2536  9E7 00262070 _ZTI25MPEG1or2AudioStreamParser
       2537  9E8 00262080 _ZTI25MPEG1or2VideoStreamFramer
       2538  9E9 00262090 _ZTI25MPEG1or2VideoStreamParser
       2539  9EA 002620A0 _ZTI25QCELPDeinterleavingBuffer
       2540  9EB 002620B0 _ZTI25QuickTimeGenericRTPSource
       2541  9EC 002620C0 _ZTI26MPEG2TransportStreamFramer
       2542  9ED 002620D0 _ZTI26MPEG4GenericBufferedPacket
       2543  9EE 002620E0 _ZTI26QCELPBufferedPacketFactory
       2544  9EF 002620F0 _ZTI26UserAuthenticationDatabase
       2545  9F0 00262100 _ZTI28PassiveServerMediaSubsession
       2546  9F1 00262110 _ZTI29DeinterleavingFrameDescriptor
       2547  9F2 00262120 _ZTI29MPEG2TransportStreamIndexFile
       2548  9F3 00262130 _ZTI29OnDemandServerMediaSubsession
       2549  9F4 00262140 _ZTI29ServerMediaSubsessionIterator
       2550  9F5 00262150 _ZTI30MPEG4VideoStreamDiscreteFramer
       2551  9F6 00262160 _ZTI30QTGenericBufferedPacketFactory
       2552  9F7 00262170 _ZTI31MPEG1or2DemuxedElementaryStream
       2553  9F8 00262180 _ZTI31MPEG2TransportStreamMultiplexor
       2554  9F9 00262190 _ZTI32MPEG2TransportStreamFromESSource
       2555  9FA 002621A0 _ZTI33AMRAudioFileServerMediaSubsession
       2556  9FB 002621B0 _ZTI33MP3AudioFileServerMediaSubsession
       2557  9FC 002621C0 _ZTI33MPEG1or2VideoStreamDiscreteFramer
       2558  9FD 002621D0 _ZTI33MPEG2TransportStreamFromPESSource
       2559  9FE 002621E0 _ZTI33MPEG4GenericBufferedPacketFactory
       2560  9FF 002621F0 _ZTI33WAVAudioFileServerMediaSubsession
       2561  A00 00262200 _ZTI34ADTSAudioFileServerMediaSubsession
       2562  A01 00262210 _ZTI35MPEG2IFrameIndexFromTransportStream
       2563  A02 00262220 _ZTI35MPEG2TransportStreamTrickModeFilter
       2564  A03 00262230 _ZTI35MPEG4VideoFileServerMediaSubsession
       2565  A04 00262240 _ZTI36MPEG1or2DemuxedServerMediaSubsession
       2566  A05 00262250 _ZTI38H263plusVideoFileServerMediaSubsession
       2567  A06 00262260 _ZTI38MPEG1or2VideoFileServerMediaSubsession
       2568  A07 00262270 _ZTI39MPEG2TransportFileServerMediaSubsession
       2569  A08 00262280 _ZTI6Medium
       2570  A09 00262290 _ZTI6Socket
       2571  A0A 002622A0 _ZTI7RTPSink
       2572  A0B 002622B0 _ZTI7_Tables
       2573  A0C 002622C0 _ZTI8FileSink
       2574  A0D 002622D0 _ZTI8HTTPSink
       2575  A0E 002622E0 _ZTI8TimeCode
       2576  A0F 002622F0 _ZTI9DummySink
       2577  A10 00262300 _ZTI9Groupsock
       2578  A11 00262310 _ZTI9HashTable
       2579  A12 00262320 _ZTI9MediaSink
       2580  A13 00262330 _ZTI9RTPSource
       2581  A14 00262340 _ZTI9SIPClient
       2582  A15 00262350 _ZTIN10RTSPServer17RTSPClientSessionE
       2583  A16 00262400 _ZTIN13MPEG1or2Demux16OutputDescriptor9SavedDataE
       2584  A17 00262410 _ZTIN14BasicHashTable8IteratorE
       2585  A18 00262420 _ZTIN19RTPReceptionStatsDB8IteratorE
       2586  A19 00262430 _ZTIN22AddressPortLookupTable8IteratorE
       2587  A1A 00262440 _ZTIN22RTPTransmissionStatsDB8IteratorE
       2588  A1B 00262450 _ZTIN23AMRDeinterleavingBuffer15FrameDescriptorE
       2589  A1C 00262460 _ZTIN23DirectedNetInterfaceSet8IteratorE
       2590  A1D 00262470 _ZTIN25QCELPDeinterleavingBuffer15FrameDescriptorE
       2591  A1E 00262480 _ZTIN9HashTable8IteratorE
       2592  A1F 00262C50 _ZTS10DelayQueue
       2593  A20 00262C60 _ZTS10HandlerSet
       2594  A21 00262C70 _ZTS10NetAddress
       2595  A22 00262C80 _ZTS10RTSPClient
       2596  A23 00262C90 _ZTS10RTSPServer
       2597  A24 00262CA0 _ZTS10destRecord
       2598  A25 00262CB0 _ZTS11AVIFileSink
       2599  A26 00262CC0 _ZTS11IndexRecord
       2600  A27 00262CD0 _ZTS11MediaSource
       2601  A28 00262CE0 _ZTS11StreamState
       2602  A29 00262CF0 _ZTS12AlarmHandler
       2603  A2A 00262D00 _ZTS12AudioRTPSink
       2604  A2B 00262D10 _ZTS12BasicUDPSink
       2605  A2C 00262D20 _ZTS12DeviceSource
       2606  A2D 00262D30 _ZTS12EndianSwap16
       2607  A2E 00262D40 _ZTS12FramedFilter
       2608  A2F 00262D50 _ZTS12FramedSource
       2609  A30 00262D60 _ZTS12Interleaving
       2610  A31 00262D70 _ZTS12MediaSession
       2611  A32 00262D80 _ZTS12NetInterface
       2612  A33 00262D90 _ZTS12OutputSocket
       2613  A34 00262DA0 _ZTS12RTCPInstance
       2614  A35 00262DB0 _ZTS12RTPInterface
       2615  A36 00262DC0 _ZTS12StreamParser
       2616  A37 00262DD0 _ZTS12VideoRTPSink
       2617  A38 00262DE0 _ZTS13Authenticator
       2618  A39 00262DF0 _ZTS13MP3ADURTPSink
       2619  A3A 00262E00 _ZTS13MP3FileSource
       2620  A3B 00262E10 _ZTS13MP3HTTPSource
       2621  A3C 00262E20 _ZTS13MP3Transcoder
       2622  A3D 00262E30 _ZTS13MPEG1or2Demux
       2623  A3E 00262E40 _ZTS13SimpleRTPSink
       2624  A3F 00262E50 _ZTS13TaskScheduler
       2625  A40 00262E60 _ZTS14AMRAudioSource
       2626  A41 00262E80 _ZTS14AudioPortNames
       2627  A42 00262EA0 _ZTS14BasicHashTable
       2628  A43 00262EC0 _ZTS14BasicUDPSource
       2629  A44 00262EE0 _ZTS14BufferedPacket
       2630  A45 00262F00 _ZTS14DarwinInjector
       2631  A46 00262F20 _ZTS14MP3StreamState
       2632  A47 00262F40 _ZTS14NetAddressList
       2633  A48 00262F60 _ZTS15AC3AudioRTPSink
       2634  A49 00262F80 _ZTS15AMRAudioRTPSink
       2635  A4A 00262FA0 _ZTS15ChunkDescriptor
       2636  A4B 00262FC0 _ZTS15DelayQueueEntry
       2637  A4C 00262FE0 _ZTS15GSMAudioRTPSink
       2638  A4D 00263000 _ZTS15HandlerIterator
       2639  A4E 00263020 _ZTS15JPEGVideoSource
       2640  A4F 00263040 _ZTS15MP3ADURTPSource
       2641  A50 00263060 _ZTS15MediaSubsession
       2642  A51 00263080 _ZTS15RawAMRRTPSource
       2643  A52 002630A0 _ZTS15SimpleRTPSource
       2644  A53 002630C0 _ZTS15tcpStreamRecord
       2645  A54 002630E0 _ZTS16ADUFromMP3Source
       2646  A55 00263100 _ZTS16AMRAudioFileSink
       2647  A56 00263120 _ZTS16AMRDeinterleaver
       2648  A57 00263140 _ZTS16AudioInputDevice
       2649  A58 00263160 _ZTS16FramedFileSource
       2650  A59 00263180 _ZTS16H264VideoRTPSink
       2651  A5A 002631A0 _ZTS16JPEGVideoRTPSink
       2652  A5B 002631C0 _ZTS16MP3ADUTranscoder
       2653  A5C 002631E0 _ZTS16MP3FromADUSource
       2654  A5D 00263200 _ZTS16MediaLookupTable
       2655  A5E 00263220 _ZTS16SocketDescriptor
       2656  A5F 00263240 _ZTS16SubsessionBuffer
       2657  A60 00263260 _ZTS16UsageEnvironment
       2658  A61 00263280 _ZTS17AC3AudioRTPSource
       2659  A62 002632A0 _ZTS17ADUBufferedPacket
       2660  A63 002632C0 _ZTS17AMRBufferedPacket
       2661  A64 002632E0 _ZTS17H264FUAFragmenter
       2662  A65 00263300 _ZTS17H264VideoFileSink
       2663  A66 00263320 _ZTS17HandlerDescriptor
       2664  A67 00263340 _ZTS17MP3ADUinterleaver
       2665  A68 00263360 _ZTS17QuickTimeFileSink
       2666  A69 00263380 _ZTS17RTPReceptionStats
       2667  A6A 002633A0 _ZTS17RawQCELPRTPSource
       2668  A6B 002633C0 _ZTS17SocketLookupTable
       2669  A6C 002633E0 _ZTS17SubsessionIOState
       2670  A6D 00263400 _ZTS18AMRAudioFileSource
       2671  A6E 00263420 _ZTS18BasicTaskScheduler
       2672  A6F 00263440 _ZTS18H261VideoRTPSource
       2673  A70 00263460 _ZTS18H264BufferedPacket
       2674  A71 00263480 _ZTS18H264VideoRTPSource
       2675  A72 002634A0 _ZTS18InterleavingFrames
       2676  A73 002634C0 _ZTS18JPEGBufferedPacket
       2677  A74 002634E0 _ZTS18JPEGVideoRTPSource
       2678  A75 00263500 _ZTS18LATMBufferedPacket
       2679  A76 00263520 _ZTS18MultiFramedRTPSink
       2680  A77 00263540 _ZTS18QCELPDeinterleaver
       2681  A78 00263560 _ZTS18RTCPMemberDatabase
       2682  A79 00263580 _ZTS18ServerMediaSession
       2683  A7A 002635A0 _ZTS18WAVAudioFileSource
       2684  A7B 002635C0 _ZTS19ADTSAudioFileSource
       2685  A7C 002635E0 _ZTS19BasicTaskScheduler0
       2686  A7D 00263600 _ZTS19InputESSourceRecord
       2687  A7E 00263620 _ZTS19MP3ADUdeinterleaver
       2688  A7F 00263640 _ZTS19MPEG4ESVideoRTPSink
       2689  A80 00263660 _ZTS19MPEG4GenericRTPSink
       2690  A81 00263680 _ZTS19QCELPBufferedPacket
       2691  A82 002636A0 _ZTS19RTPReceptionStatsDB
       2692  A83 002636C0 _ZTS20AC3AudioStreamFramer
       2693  A84 002636E0 _ZTS20AC3AudioStreamParser
       2694  A85 00263700 _ZTS20AVISubsessionIOState
       2695  A86 00263720 _ZTS20ByteStreamFileSource
       2696  A87 00263740 _ZTS20DeinterleavingFrames
       2697  A88 00263760 _ZTS20DirectedNetInterface
       2698  A89 00263780 _ZTS20H263plusVideoRTPSink
       2699  A8A 002637A0 _ZTS20MPEG1or2AudioRTPSink
       2700  A8B 002637C0 _ZTS20MPEG1or2VideoRTPSink
       2701  A8C 002637E0 _ZTS20MultiFramedRTPSource
       2702  A8D 00263800 _ZTS20RTPTransmissionStats
       2703  A8E 00263820 _ZTS21BasicUsageEnvironment
       2704  A8F 00263840 _ZTS21BufferedPacketFactory
       2705  A90 00263860 _ZTS21H264VideoStreamFramer
       2706  A91 00263880 _ZTS21MP3ADUinterleaverBase
       2707  A92 002638A0 _ZTS21MPEG1or2VideoHTTPSink
       2708  A93 002638C0 _ZTS21MPEG4ESVideoRTPSource
       2709  A94 002638E0 _ZTS21MPEG4GenericRTPSource
       2710  A95 00263900 _ZTS21MPEG4LATMAudioRTPSink
       2711  A96 00263920 _ZTS21MPEGVideoStreamFramer
       2712  A97 00263940 _ZTS21MPEGVideoStreamParser
       2713  A98 00263960 _ZTS21ServerMediaSubsession
       2714  A99 00263980 _ZTS22AddressPortLookupTable
       2715  A9A 002639A0 _ZTS22BasicUsageEnvironment0
       2716  A9B 002639C0 _ZTS22H263plusVideoRTPSource
       2717  A9C 002639E0 _ZTS22HostFromNetworkOrder16
       2718  A9D 00263A00 _ZTS22MPEG1or2AudioRTPSource
       2719  A9E 00263A20 _ZTS22MPEG1or2VideoRTPSource
       2720  A9F 00263A40 _ZTS22MPEG4VideoStreamFramer
       2721  AA0 00263A60 _ZTS22MPEG4VideoStreamParser
       2722  AA1 00263A80 _ZTS22NetworkFromHostOrder16
       2723  AA2 00263AA0 _ZTS22PCMFromuLawAudioSource
       2724  AA3 00263AC0 _ZTS22RTPTransmissionStatsDB
       2725  AA4 00263AE0 _ZTS22ReorderingPacketBuffer
       2726  AA5 00263B00 _ZTS22uLawFromPCMAudioSource
       2727  AA6 00263B20 _ZTS23AMRDeinterleavingBuffer
       2728  AA7 00263B40 _ZTS23DirectedNetInterfaceSet
       2729  AA8 00263B60 _ZTS23MPEG1or2FileServerDemux
       2730  AA9 00263B80 _ZTS23MPEG4LATMAudioRTPSource
       2731  AAA 00263BA0 _ZTS23MPEGProgramStreamParser
       2732  AAB 00263BC0 _ZTS23MediaSubsessionIterator
       2733  AAC 00263BE0 _ZTS23QTGenericBufferedPacket
       2734  AAD 00263C00 _ZTS24ADUBufferedPacketFactory
       2735  AAE 00263C20 _ZTS24AMRBufferedPacketFactory
       2736  AAF 00263C40 _ZTS25ByteStreamMultiFileSource
       2737  AB0 00263C60 _ZTS25FileServerMediaSubsession
       2738  AB1 00263C80 _ZTS25H263plusVideoStreamFramer
       2739  AB2 00263CA0 _ZTS25H263plusVideoStreamParser
       2740  AB3 00263CC0 _ZTS25H264BufferedPacketFactory
       2741  AB4 00263CE0 _ZTS25JPEGBufferedPacketFactory
       2742  AB5 00263D00 _ZTS25LATMBufferedPacketFactory
       2743  AB6 00263D20 _ZTS25MPEG1or2AudioStreamFramer
       2744  AB7 00263D40 _ZTS25MPEG1or2AudioStreamParser
       2745  AB8 00263D60 _ZTS25MPEG1or2VideoStreamFramer
       2746  AB9 00263D80 _ZTS25MPEG1or2VideoStreamParser
       2747  ABA 00263DA0 _ZTS25QCELPDeinterleavingBuffer
       2748  ABB 00263DC0 _ZTS25QuickTimeGenericRTPSource
       2749  ABC 00263DE0 _ZTS26MPEG2TransportStreamFramer
       2750  ABD 00263E00 _ZTS26MPEG4GenericBufferedPacket
       2751  ABE 00263E20 _ZTS26QCELPBufferedPacketFactory
       2752  ABF 00263E40 _ZTS26UserAuthenticationDatabase
       2753  AC0 00263E60 _ZTS28PassiveServerMediaSubsession
       2754  AC1 00263E80 _ZTS29DeinterleavingFrameDescriptor
       2755  AC2 00263EA0 _ZTS29MPEG2TransportStreamIndexFile
       2756  AC3 00263EC0 _ZTS29OnDemandServerMediaSubsession
       2757  AC4 00263EE0 _ZTS29ServerMediaSubsessionIterator
       2758  AC5 00263F00 _ZTS30MPEG4VideoStreamDiscreteFramer
       2759  AC6 00263F40 _ZTS30QTGenericBufferedPacketFactory
       2760  AC7 00263F80 _ZTS31MPEG1or2DemuxedElementaryStream
       2761  AC8 00263FC0 _ZTS31MPEG2TransportStreamMultiplexor
       2762  AC9 00264000 _ZTS32MPEG2TransportStreamFromESSource
       2763  ACA 00264040 _ZTS33AMRAudioFileServerMediaSubsession
       2764  ACB 00264080 _ZTS33MP3AudioFileServerMediaSubsession
       2765  ACC 002640C0 _ZTS33MPEG1or2VideoStreamDiscreteFramer
       2766  ACD 00264100 _ZTS33MPEG2TransportStreamFromPESSource
       2767  ACE 00264140 _ZTS33MPEG4GenericBufferedPacketFactory
       2768  ACF 00264180 _ZTS33WAVAudioFileServerMediaSubsession
       2769  AD0 002641C0 _ZTS34ADTSAudioFileServerMediaSubsession
       2770  AD1 00264200 _ZTS35MPEG2IFrameIndexFromTransportStream
       2771  AD2 00264240 _ZTS35MPEG2TransportStreamTrickModeFilter
       2772  AD3 00264280 _ZTS35MPEG4VideoFileServerMediaSubsession
       2773  AD4 002642C0 _ZTS36MPEG1or2DemuxedServerMediaSubsession
       2774  AD5 00264300 _ZTS38H263plusVideoFileServerMediaSubsession
       2775  AD6 00264340 _ZTS38MPEG1or2VideoFileServerMediaSubsession
       2776  AD7 00264380 _ZTS39MPEG2TransportFileServerMediaSubsession
       2777  AD8 002643C0 _ZTS6Medium
       2778  AD9 002643D0 _ZTS6Socket
       2779  ADA 002643E0 _ZTS7RTPSink
       2780  ADB 002643F0 _ZTS7_Tables
       2781  ADC 00264400 _ZTS8FileSink
       2782  ADD 00264410 _ZTS8HTTPSink
       2783  ADE 00264420 _ZTS8TimeCode
       2784  ADF 00264430 _ZTS9DummySink
       2785  AE0 00264440 _ZTS9Groupsock
       2786  AE1 00264450 _ZTS9HashTable
       2787  AE2 00264460 _ZTS9MediaSink
       2788  AE3 00264470 _ZTS9RTPSource
       2789  AE4 00264480 _ZTS9SIPClient
       2790  AE5 00264490 _ZTSN10RTSPServer17RTSPClientSessionE
       2791  AE6 00264750 _ZTSN13MPEG1or2Demux16OutputDescriptor9SavedDataE
       2792  AE7 00264790 _ZTSN14BasicHashTable8IteratorE
       2793  AE8 002647B0 _ZTSN19RTPReceptionStatsDB8IteratorE
       2794  AE9 002647F0 _ZTSN22AddressPortLookupTable8IteratorE
       2795  AEA 00264830 _ZTSN22RTPTransmissionStatsDB8IteratorE
       2796  AEB 00264870 _ZTSN23AMRDeinterleavingBuffer15FrameDescriptorE
       2797  AEC 002648B0 _ZTSN23DirectedNetInterfaceSet8IteratorE
       2798  AED 002648F0 _ZTSN25QCELPDeinterleavingBuffer15FrameDescriptorE
       2799  AEE 00264930 _ZTSN9HashTable8IteratorE
       2800  AEF 00265630 _ZTV10DelayQueue
       2801  AF0 00265650 _ZTV10HandlerSet
       2802  AF1 00265660 _ZTV10NetAddress
       2803  AF2 00265670 _ZTV10RTSPClient
       2804  AF3 002656B0 _ZTV10RTSPServer
       2805  AF4 002656F0 _ZTV10destRecord
       2806  AF5 00265700 _ZTV11AVIFileSink
       2807  AF6 00265740 _ZTV11IndexRecord
       2808  AF7 00265750 _ZTV11MediaSource
       2809  AF8 002657B0 _ZTV11StreamState
       2810  AF9 002657C0 _ZTV12AlarmHandler
       2811  AFA 002657E0 _ZTV12AudioRTPSink
       2812  AFB 00265860 _ZTV12BasicUDPSink
       2813  AFC 002658A0 _ZTV12DeviceSource
       2814  AFD 00265900 _ZTV12EndianSwap16
       2815  AFE 00265960 _ZTV12FramedFilter
       2816  AFF 002659C0 _ZTV12FramedSource
       2817  B00 00265A20 _ZTV12Interleaving
       2818  B01 00265A30 _ZTV12MediaSession
       2819  B02 00265A70 _ZTV12NetInterface
       2820  B03 00265A80 _ZTV12OutputSocket
       2821  B04 00265AA0 _ZTV12RTCPInstance
       2822  B05 00265AE0 _ZTV12RTPInterface
       2823  B06 00265AF0 _ZTV12StreamParser
       2824  B07 00265B10 _ZTV12VideoRTPSink
       2825  B08 00265B90 _ZTV13Authenticator
       2826  B09 00265BA0 _ZTV13MP3ADURTPSink
       2827  B0A 00265C20 _ZTV13MP3FileSource
       2828  B0B 00265CA0 _ZTV13MP3HTTPSource
       2829  B0C 00265D20 _ZTV13MP3Transcoder
       2830  B0D 00265D80 _ZTV13MPEG1or2Demux
       2831  B0E 00265DC0 _ZTV13SimpleRTPSink
       2832  B0F 00265E40 _ZTV13TaskScheduler
       2833  B10 00265E80 _ZTV14AMRAudioSource
       2834  B11 00265EE0 _ZTV14AudioPortNames
       2835  B12 00265EF0 _ZTV14BasicHashTable
       2836  B13 00265F10 _ZTV14BasicUDPSource
       2837  B14 00265F70 _ZTV14BufferedPacket
       2838  B15 00265F90 _ZTV14DarwinInjector
       2839  B16 00265FD0 _ZTV14MP3StreamState
       2840  B17 00265FE0 _ZTV14NetAddressList
       2841  B18 00265FF0 _ZTV15AC3AudioRTPSink
       2842  B19 00266070 _ZTV15AMRAudioRTPSink
       2843  B1A 002660F0 _ZTV15ChunkDescriptor
       2844  B1B 00266100 _ZTV15DelayQueueEntry
       2845  B1C 00266120 _ZTV15GSMAudioRTPSink
       2846  B1D 002661A0 _ZTV15HandlerIterator
       2847  B1E 002661B0 _ZTV15JPEGVideoSource
       2848  B1F 00266230 _ZTV15MP3ADURTPSource
       2849  B20 002662B0 _ZTV15MediaSubsession
       2850  B21 002662C0 _ZTV15RawAMRRTPSource
       2851  B22 00266340 _ZTV15SimpleRTPSource
       2852  B23 002663C0 _ZTV15tcpStreamRecord
       2853  B24 002663D0 _ZTV16ADUFromMP3Source
       2854  B25 00266430 _ZTV16AMRAudioFileSink
       2855  B26 00266490 _ZTV16AMRDeinterleaver
       2856  B27 002664F0 _ZTV16AudioInputDevice
       2857  B28 00266570 _ZTV16FramedFileSource
       2858  B29 002665D0 _ZTV16H264VideoRTPSink
       2859  B2A 00266650 _ZTV16JPEGVideoRTPSink
       2860  B2B 002666D0 _ZTV16MP3ADUTranscoder
       2861  B2C 00266730 _ZTV16MP3FromADUSource
       2862  B2D 00266790 _ZTV16MediaLookupTable
       2863  B2E 002667A0 _ZTV16SocketDescriptor
       2864  B2F 002667B0 _ZTV16SubsessionBuffer
       2865  B30 002667C0 _ZTV16UsageEnvironment
       2866  B31 00266820 _ZTV17AC3AudioRTPSource
       2867  B32 002668A0 _ZTV17ADUBufferedPacket
       2868  B33 002668C0 _ZTV17AMRBufferedPacket
       2869  B34 002668E0 _ZTV17H264FUAFragmenter
       2870  B35 00266940 _ZTV17H264VideoFileSink
       2871  B36 002669A0 _ZTV17HandlerDescriptor
       2872  B37 002669B0 _ZTV17MP3ADUinterleaver
       2873  B38 00266A30 _ZTV17QuickTimeFileSink
       2874  B39 00266A70 _ZTV17RTPReceptionStats
       2875  B3A 00266A80 _ZTV17RawQCELPRTPSource
       2876  B3B 00266B00 _ZTV17SocketLookupTable
       2877  B3C 00266B20 _ZTV17SubsessionIOState
       2878  B3D 00266B30 _ZTV18AMRAudioFileSource
       2879  B3E 00266B90 _ZTV18BasicTaskScheduler
       2880  B3F 00266BD0 _ZTV18H261VideoRTPSource
       2881  B40 00266C50 _ZTV18H264BufferedPacket
       2882  B41 00266C70 _ZTV18H264VideoRTPSource
       2883  B42 00266CF0 _ZTV18InterleavingFrames
       2884  B43 00266D00 _ZTV18JPEGBufferedPacket
       2885  B44 00266D20 _ZTV18JPEGVideoRTPSource
       2886  B45 00266DA0 _ZTV18LATMBufferedPacket
       2887  B46 00266DC0 _ZTV18MultiFramedRTPSink
       2888  B47 00266E40 _ZTV18QCELPDeinterleaver
       2889  B48 00266EA0 _ZTV18RTCPMemberDatabase
       2890  B49 00266EB0 _ZTV18ServerMediaSession
       2891  B4A 00266EF0 _ZTV18WAVAudioFileSource
       2892  B4B 00266F70 _ZTV19ADTSAudioFileSource
       2893  B4C 00266FD0 _ZTV19BasicTaskScheduler0
       2894  B4D 00267010 _ZTV19InputESSourceRecord
       2895  B4E 00267020 _ZTV19MP3ADUdeinterleaver
       2896  B4F 002670A0 _ZTV19MPEG4ESVideoRTPSink
       2897  B50 00267120 _ZTV19MPEG4GenericRTPSink
       2898  B51 002671A0 _ZTV19QCELPBufferedPacket
       2899  B52 002671C0 _ZTV19RTPReceptionStatsDB
       2900  B53 002671D0 _ZTV20AC3AudioStreamFramer
       2901  B54 00267230 _ZTV20AC3AudioStreamParser
       2902  B55 00267250 _ZTV20AVISubsessionIOState
       2903  B56 00267260 _ZTV20ByteStreamFileSource
       2904  B57 002672C0 _ZTV20DeinterleavingFrames
       2905  B58 002672D0 _ZTV20DirectedNetInterface
       2906  B59 002672F0 _ZTV20H263plusVideoRTPSink
       2907  B5A 00267370 _ZTV20MPEG1or2AudioRTPSink
       2908  B5B 002673F0 _ZTV20MPEG1or2VideoRTPSink
       2909  B5C 00267470 _ZTV20MultiFramedRTPSource
       2910  B5D 002674F0 _ZTV20RTPTransmissionStats
       2911  B5E 00267500 _ZTV21BasicUsageEnvironment
       2912  B5F 00267560 _ZTV21BufferedPacketFactory
       2913  B60 00267580 _ZTV21H264VideoStreamFramer
       2914  B61 00267600 _ZTV21MP3ADUinterleaverBase
       2915  B62 00267680 _ZTV21MPEG1or2VideoHTTPSink
       2916  B63 002676E0 _ZTV21MPEG4ESVideoRTPSource
       2917  B64 00267760 _ZTV21MPEG4GenericRTPSource
       2918  B65 002677E0 _ZTV21MPEG4LATMAudioRTPSink
       2919  B66 00267860 _ZTV21MPEGVideoStreamFramer
       2920  B67 002678C0 _ZTV21MPEGVideoStreamParser
       2921  B68 002678E0 _ZTV21ServerMediaSubsession
       2922  B69 00267940 _ZTV22AddressPortLookupTable
       2923  B6A 00267950 _ZTV22BasicUsageEnvironment0
       2924  B6B 002679B0 _ZTV22H263plusVideoRTPSource
       2925  B6C 00267A30 _ZTV22HostFromNetworkOrder16
       2926  B6D 00267A90 _ZTV22MPEG1or2AudioRTPSource
       2927  B6E 00267B10 _ZTV22MPEG1or2VideoRTPSource
       2928  B6F 00267B90 _ZTV22MPEG4VideoStreamFramer
       2929  B70 00267BF0 _ZTV22MPEG4VideoStreamParser
       2930  B71 00267C10 _ZTV22NetworkFromHostOrder16
       2931  B72 00267C70 _ZTV22PCMFromuLawAudioSource
       2932  B73 00267CD0 _ZTV22RTPTransmissionStatsDB
       2933  B74 00267CE0 _ZTV22ReorderingPacketBuffer
       2934  B75 00267CF0 _ZTV22uLawFromPCMAudioSource
       2935  B76 00267D50 _ZTV23AMRDeinterleavingBuffer
       2936  B77 00267D60 _ZTV23DirectedNetInterfaceSet
       2937  B78 00267D70 _ZTV23MPEG1or2FileServerDemux
       2938  B79 00267DB0 _ZTV23MPEG4LATMAudioRTPSource
       2939  B7A 00267E30 _ZTV23MPEGProgramStreamParser
       2940  B7B 00267E50 _ZTV23MediaSubsessionIterator
       2941  B7C 00267E60 _ZTV23QTGenericBufferedPacket
       2942  B7D 00267E80 _ZTV24ADUBufferedPacketFactory
       2943  B7E 00267EA0 _ZTV24AMRBufferedPacketFactory
       2944  B7F 00267EC0 _ZTV25ByteStreamMultiFileSource
       2945  B80 00267F20 _ZTV25FileServerMediaSubsession
       2946  B81 00267FA0 _ZTV25H263plusVideoStreamFramer
       2947  B82 00268020 _ZTV25H263plusVideoStreamParser
       2948  B83 00268040 _ZTV25H264BufferedPacketFactory
       2949  B84 00268060 _ZTV25JPEGBufferedPacketFactory
       2950  B85 00268080 _ZTV25LATMBufferedPacketFactory
       2951  B86 002680A0 _ZTV25MPEG1or2AudioStreamFramer
       2952  B87 00268100 _ZTV25MPEG1or2AudioStreamParser
       2953  B88 00268120 _ZTV25MPEG1or2VideoStreamFramer
       2954  B89 00268180 _ZTV25MPEG1or2VideoStreamParser
       2955  B8A 002681A0 _ZTV25QCELPDeinterleavingBuffer
       2956  B8B 002681B0 _ZTV25QuickTimeGenericRTPSource
       2957  B8C 00268230 _ZTV26MPEG2TransportStreamFramer
       2958  B8D 00268290 _ZTV26MPEG4GenericBufferedPacket
       2959  B8E 002682B0 _ZTV26QCELPBufferedPacketFactory
       2960  B8F 002682D0 _ZTV26UserAuthenticationDatabase
       2961  B90 002682F0 _ZTV28PassiveServerMediaSubsession
       2962  B91 00268350 _ZTV29DeinterleavingFrameDescriptor
       2963  B92 00268360 _ZTV29MPEG2TransportStreamIndexFile
       2964  B93 002683A0 _ZTV29OnDemandServerMediaSubsession
       2965  B94 00268420 _ZTV29ServerMediaSubsessionIterator
       2966  B95 00268430 _ZTV30MPEG4VideoStreamDiscreteFramer
       2967  B96 00268490 _ZTV30QTGenericBufferedPacketFactory
       2968  B97 002684B0 _ZTV31MPEG1or2DemuxedElementaryStream
       2969  B98 00268510 _ZTV31MPEG2TransportStreamMultiplexor
       2970  B99 00268590 _ZTV32MPEG2TransportStreamFromESSource
       2971  B9A 00268610 _ZTV33AMRAudioFileServerMediaSubsession
       2972  B9B 00268690 _ZTV33MP3AudioFileServerMediaSubsession
       2973  B9C 00268710 _ZTV33MPEG1or2VideoStreamDiscreteFramer
       2974  B9D 00268770 _ZTV33MPEG2TransportStreamFromPESSource
       2975  B9E 002687F0 _ZTV33MPEG4GenericBufferedPacketFactory
       2976  B9F 00268810 _ZTV33WAVAudioFileServerMediaSubsession
       2977  BA0 00268890 _ZTV34ADTSAudioFileServerMediaSubsession
       2978  BA1 00268910 _ZTV35MPEG2IFrameIndexFromTransportStream
       2979  BA2 00268970 _ZTV35MPEG2TransportStreamTrickModeFilter
       2980  BA3 002689D0 _ZTV35MPEG4VideoFileServerMediaSubsession
       2981  BA4 00268A50 _ZTV36MPEG1or2DemuxedServerMediaSubsession
       2982  BA5 00268AD0 _ZTV38H263plusVideoFileServerMediaSubsession
       2983  BA6 00268B50 _ZTV38MPEG1or2VideoFileServerMediaSubsession
       2984  BA7 00268BD0 _ZTV39MPEG2TransportFileServerMediaSubsession
       2985  BA8 00268C50 _ZTV6Medium
       2986  BA9 00268C90 _ZTV6Socket
       2987  BAA 00268CB0 _ZTV7RTPSink
       2988  BAB 00268D10 _ZTV7_Tables
       2989  BAC 00268D20 _ZTV8FileSink
       2990  BAD 00268D80 _ZTV8HTTPSink
       2991  BAE 00268DE0 _ZTV8TimeCode
       2992  BAF 00268DF0 _ZTV9DummySink
       2993  BB0 00268E30 _ZTV9Groupsock
       2994  BB1 00268E50 _ZTV9HashTable
       2995  BB2 00268E70 _ZTV9MediaSink
       2996  BB3 00268EB0 _ZTV9RTPSource
       2997  BB4 00268F30 _ZTV9SIPClient
       2998  BB5 00268F70 _ZTVN10RTSPServer17RTSPClientSessionE
       2999  BB6 00269180 _ZTVN13MPEG1or2Demux16OutputDescriptor9SavedDataE
       3000  BB7 00269190 _ZTVN14BasicHashTable8IteratorE
       3001  BB8 002691B0 _ZTVN19RTPReceptionStatsDB8IteratorE
       3002  BB9 002691C0 _ZTVN22AddressPortLookupTable8IteratorE
       3003  BBA 002691D0 _ZTVN22RTPTransmissionStatsDB8IteratorE
       3004  BBB 002691E0 _ZTVN23AMRDeinterleavingBuffer15FrameDescriptorE
       3005  BBC 002691F0 _ZTVN23DirectedNetInterfaceSet8IteratorE
       3006  BBD 00269200 _ZTVN25QCELPDeinterleavingBuffer15FrameDescriptorE
       3007  BBE 00269210 _ZTVN9HashTable8IteratorE
       3008  BBF 000DD5B8 _ZlsR16UsageEnvironmentRK4Port
       3009  BC0 000DCA54 _ZlsR16UsageEnvironmentRK6Socket
       3010  BC1 000DBC90 _ZlsR16UsageEnvironmentRK9Groupsock
       3011  BC2 000DF7A8 _ZmiRK7TimevalS1_
       3012  BC3 000DF7EC _ZmlsRK13DelayInterval
       3013  BC4 000580B0 __ACL_Create
       3014  BC5 00058100 __ACL_Duplicate
       3015  BC6 0001CDE0 __access2_New
       3016  BC7 00051260 __announce_HandlerCreate
       3017  BC8 00047BA0 __aout_DecNew
       3018  BC9 000466B0 __aout_New
       3019  BCA 0004E030 __aout_VolumeDown
       3020  BCB 0004DB30 __aout_VolumeGet
       3021  BCC 0004DDC0 __aout_VolumeInfos
       3022  BCD 0004E1C0 __aout_VolumeMute
       3023  BCE 0004DC50 __aout_VolumeSet
       3024  BCF 0004DEA0 __aout_VolumeUp
       3025  BD0 00063F20 __block_FifoNew
       3026  BD1 00063BC0 __block_New
       3027  BD2 000D9600 __bzero
       3028  BD3 0006FEE0 __config_GetFloat
       3029  BD4 0006FFF0 __config_GetInt
       3030  BD5 0006FD20 __config_GetPsz
       3031  BD6 00070120 __config_GetType
       3032  BD7 000727C0 __config_LoadCmdLine
       3033  BD8 00070D00 __config_LoadConfigFile
       3034  BD9 0006F730 __config_PutFloat
       3035  BDA 0006F900 __config_PutInt
       3036  BDB 0006FAC0 __config_PutPsz
       3037  BDC 00070B80 __config_ResetAll
       3038  BDD 000727A0 __config_SaveConfigFile
       3039  BDE 000B3900 __csa_Delete__mux_ts
       3040  BDF 000B38D0 __csa_New__mux_ts
       3041  BE0 000B3910 __csa_SetCW__mux_ts
       3042  BE1 000B45F0 __csa_decrypt__mux_ts
       3043  BE2 000B4B10 __csa_encrypt__mux_ts
       3044  BE3 00022940 __demux2_New
       3045  BE4 0026A410 __getopt_initialized
       3046  BE5 00074560 __image_HandlerCreate
       3047  BE6 00028240 __input_CreateThread
       3048  BE7 00028130 __input_CreateThread2
       3049  BE8 0002F950 __input_Preparse
       3050  BE9 0002FB50 __input_Read
       3051  BEA 0000FAA0 __intf_Create
       3052  BEB 00010540 __intf_Eject
       3053  BEC 00011750 __intf_Interact
       3054  BED 000122A0 __intf_UserFatal
       3055  BEE 00010B40 __intf_UserHide
       3056  BEF 00011EA0 __intf_UserLoginPassword
       3057  BF0 000120C0 __intf_UserProgress
       3058  BF1 00010EB0 __intf_UserProgressUpdate
       3059  BF2 000121A0 __intf_UserYesNo
       3060  BF3 00068BE0 __module_EndBank
       3061  BF4 00064870 __module_InitBank
       3062  BF5 00064A10 __module_LoadBuiltins
       3063  BF6 00064680 __module_LoadMain
       3064  BF7 00066850 __module_LoadPlugins
       3065  BF8 000659B0 __module_Need
       3066  BF9 00064640 __module_ResetBank
       3067  BFA 00065280 __module_Unneed
       3068  BFB 00077FF0 __msg_Create
       3069  BFC 00078FB0 __msg_Dbg
       3070  BFD 000799F0 __msg_Destroy
       3071  BFE 00079030 __msg_Err
       3072  BFF 000796D0 __msg_Flush
       3073  C00 00079100 __msg_Generic
       3074  C01 000790B0 __msg_GenericVa
       3075  C02 00079070 __msg_Info
       3076  C03 00079360 __msg_Subscribe
       3077  C04 00079140 __msg_Unsubscribe
       3078  C05 00078FF0 __msg_Warn
       3079  C06 0005A360 __net_Accept
       3080  C07 0005A770 __net_ConnectTCP
       3081  C08 0005B500 __net_ConnectUDP
       3082  C09 00059DD0 __net_Gets
       3083  C0A 0005A0B0 __net_ListenTCP
       3084  C0B 0005BAE0 __net_OpenUDP
       3085  C0C 00059360 __net_Read
       3086  C0D 000595B0 __net_ReadNonBlock
       3087  C0E 000597C0 __net_Select
       3088  C0F 00059C40 __net_Write
       3089  C10 00059E70 __net_vaPrintf
       3090  C11 00054160 __osd_MenuActivate
       3091  C12 000533F0 __osd_MenuCreate
       3092  C13 000537D0 __osd_MenuDelete
       3093  C14 00053ED0 __osd_MenuDown
       3094  C15 00053AF0 __osd_MenuHide
       3095  C16 000544A0 __osd_MenuNext
       3096  C17 000546D0 __osd_MenuPrev
       3097  C18 000538F0 __osd_MenuShow
       3098  C19 00053C40 __osd_MenuUp
       3099  C1A 000533D0 __osd_StateChange
       3100  C1B 00054900 __osd_Volume
       3101  C1C 000126F0 __playlist_Create
       3102  C1D 00018C20 __playlist_ItemCopy
       3103  C1E 000199C0 __playlist_ItemNew
       3104  C1F 000502B0 __sout_CfgParse
       3105  C20 000508C0 __sout_NewInstance
       3106  C21 0003F4D0 __spu_Create
       3107  C22 0003FAA0 __spu_CreateRegion
       3108  C23 0003FC80 __spu_DestroyRegion
       3109  C24 0003FBC0 __spu_MakeRegion
       3110  C25 0006C740 __stats_ComputeGlobalStats
       3111  C26 0006BBF0 __stats_CounterGet
       3112  C27 0006D590 __stats_Create
       3113  C28 0006C150 __stats_Get
       3114  C29 0006C020 __stats_TimerDump
       3115  C2A 0006D7B0 __stats_TimerStart
       3116  C2B 0006C070 __stats_TimerStop
       3117  C2C 0006BA50 __stats_TimersDumpAll
       3118  C2D 0006CCE0 __stats_Update
       3119  C2E 000232D0 __stream_DemuxNew
       3120  C2F 000340B0 __stream_MemoryNew
       3121  C30 00032300 __stream_UrlNew
       3122  C31 0007FB00 __update_New
       3123  C32 0007D430 __var_AddCallback
       3124  C33 0007E3B0 __var_Change
       3125  C34 0007F110 __var_Create
       3126  C35 0007D020 __var_DelCallback
       3127  C36 0007D680 __var_Destroy
       3128  C37 0007D9A0 __var_Get
       3129  C38 0007F6D0 __var_OptionParse
       3130  C39 0007DA80 __var_Set
       3131  C3A 0007DFE0 __var_Type
       3132  C3B 0006AB00 __vlc_cond_destroy
       3133  C3C 0006A9F0 __vlc_cond_init
       3134  C3D 0008ED60 __vlc_execve
       3135  C3E 00062350 __vlc_fix_readdir_charset
       3136  C3F 0007BA50 __vlc_list_find
       3137  C40 0006A9B0 __vlc_mutex_destroy
       3138  C41 0006A940 __vlc_mutex_init
       3139  C42 0007B3B0 __vlc_object_attach
       3140  C43 00079DB0 __vlc_object_create
       3141  C44 0007A370 __vlc_object_destroy
       3142  C45 0007B680 __vlc_object_detach
       3143  C46 0007AA30 __vlc_object_find
       3144  C47 0007A760 __vlc_object_get
       3145  C48 0007B190 __vlc_object_release
       3146  C49 0007B100 __vlc_object_yield
       3147  C4A 0006ABF0 __vlc_thread_create
       3148  C4B 0006B170 __vlc_thread_join
       3149  C4C 0006B030 __vlc_thread_ready
       3150  C4D 0006AFD0 __vlc_thread_set_priority
       3151  C4E 0006A8F0 __vlc_threads_end
       3152  C4F 0006A7C0 __vlc_threads_init
       3153  C50 0008BED0 __vlm_New
       3154  C51 0003D710 __vout_AllocatePicture
       3155  C52 0003C810 __vout_CopyPicture
       3156  C53 000386A0 __vout_Create
       3157  C54 0003D0F0 __vout_InitPicture
       3158  C55 0003F190 __vout_OSDMessage
       3159  C56 00039310 __vout_Request
       3160  C57 00041ED0 __vout_SynchroInit
       3161  C58 0008CE60 __xml_Create
       3162  C59 000954C0 _getopt_internal
       3163  C5A 00172990 _libiconv_version
       3164  C5B 00093BA0 _mediacontrol_createRGBPicture
       3165  C5C 000C0140 _nl_expand_alias
       3166  C5D 000BFE05 _nl_explode_name
       3167  C5E 000BF970 _nl_find_domain
       3168  C5F 000BFDD0 _nl_find_language
       3169  C60 000BBF64 _nl_find_msg
       3170  C61 000BD596 _nl_free_domain_conv
       3171  C62 000BD3AC _nl_init_domain_conv
       3172  C63 000BE8C0 _nl_language_preferences_default
       3173  C64 000BD5DB _nl_load_domain
       3174  C65 000BF6F3 _nl_locale_name
       3175  C66 000BE95B _nl_locale_name_default
       3176  C67 000BE8D0 _nl_locale_name_posix
       3177  C68 000BF7DC _nl_log_untranslated
       3178  C69 000C08C3 _nl_make_l10nflist
       3179  C6A 0027D9C0 _nl_msg_cat_cntr
       3180  C6B 000C0F85 _nl_normalize_codeset
       3181  C6C 0001CE50 access2_Delete
       3182  C6D 0001CE20 access2_FilterNew
       3183  C6E 000D6F80 aliases2_lookup
       3184  C6F 000D6D9F aliases_lookup
       3185  C70 000512E0 announce_HandlerDestroy
       3186  C71 00051340 announce_Register
       3187  C72 00051980 announce_SAPHandlerCreate
       3188  C73 00051AE0 announce_SAPHandlerDestroy
       3189  C74 00050FC0 announce_UnRegister
       3190  C75 000473A0 aout_ChannelReorder
       3191  C76 0004E7E0 aout_ChannelsRestart
       3192  C77 00047160 aout_CheckChannelReorder
       3193  C78 00046DC0 aout_DateGet
       3194  C79 00046DD0 aout_DateIncrement
       3195  C7A 00046D20 aout_DateInit
       3196  C7B 00047080 aout_DateMove
       3197  C7C 00046EB0 aout_DateSet
       3198  C7D 000480C0 aout_DecDelete
       3199  C7E 00048540 aout_DecDeleteBuffer
       3200  C7F 00048330 aout_DecNewBuffer
       3201  C80 00048570 aout_DecPlay
       3202  C81 000467A0 aout_Delete
       3203  C82 00047120 aout_FifoDestroy
       3204  C83 000470E0 aout_FifoFirstDate
       3205  C84 00046D40 aout_FifoInit
       3206  C85 000470A0 aout_FifoMoveDates
       3207  C86 000470D0 aout_FifoNextStart
       3208  C87 00047100 aout_FifoPop
       3209  C88 00046ED0 aout_FifoPush
       3210  C89 00047020 aout_FifoSet
       3211  C8A 00048AA0 aout_FiltersCreatePipeline
       3212  C8B 000497A0 aout_FiltersDestroyPipeline
       3213  C8C 000499B0 aout_FiltersHintBuffers
       3214  C8D 00049C60 aout_FiltersPlay
       3215  C8E 0004E720 aout_FindAndRestart
       3216  C8F 00046830 aout_FormatNbChannels
       3217  C90 000468C0 aout_FormatPrepare
       3218  C91 00046C20 aout_FormatPrint
       3219  C92 00046A00 aout_FormatPrintChannels
       3220  C93 00046C90 aout_FormatsPrint
       3221  C94 00049E50 aout_InputDelete
       3222  C95 00049FB0 aout_InputNew
       3223  C96 0004AE80 aout_InputPlay
       3224  C97 0004BFD0 aout_MixerDelete
       3225  C98 0004CD00 aout_MixerMultiplierGet
       3226  C99 0004CBD0 aout_MixerMultiplierSet
       3227  C9A 0004BF50 aout_MixerNew
       3228  C9B 0004CBB0 aout_MixerRun
       3229  C9C 0004D4E0 aout_OutputDelete
       3230  C9D 0004CD20 aout_OutputNew
       3231  C9E 0004D640 aout_OutputNextBuffer
       3232  C9F 0004D550 aout_OutputPlay
       3233  CA0 0004E480 aout_Restart
       3234  CA1 0004E460 aout_VolumeNoneGet
       3235  CA2 0004E450 aout_VolumeNoneInfos
       3236  CA3 0004E420 aout_VolumeNoneInit
       3237  CA4 0004E470 aout_VolumeNoneSet
       3238  CA5 0004E320 aout_VolumeSoftGet
       3239  CA6 0004E310 aout_VolumeSoftInfos
       3240  CA7 0004E390 aout_VolumeSoftInit
       3241  CA8 0004E340 aout_VolumeSoftSet
       3242  CA9 000A2C20 asf_HeaderParse__live555
       3243  CAA 000A3790 asf_StreamSelect__live555
       3244  CAB 00063F90 block_FifoEmpty
       3245  CAC 00064250 block_FifoGet
       3246  CAD 000640F0 block_FifoPut
       3247  CAE 00064020 block_FifoRelease
       3248  CAF 00064450 block_FifoShow
       3249  CB0 00063C60 block_Realloc
       3250  CB1 00072680 config_AutoSaveConfigFile
       3251  CB2 000716B0 config_CreateDir
       3252  CB3 000702E0 config_Duplicate
       3253  CB4 0006F670 config_FindConfig
       3254  CB5 00070260 config_FindModule
       3255  CB6 000708E0 config_Free
       3256  CB7 000743E0 config_GetDataDir
       3257  CB8 00074510 config_GetHomeDir
       3258  CB9 00074520 config_GetUserDir
       3259  CBA 00070B30 config_SetCallbacks
       3260  CBB 00070B60 config_UnsetCallbacks
       3261  CBC 0006DF20 convert_xml_special_chars
       3262  CBD 00063A30 date_Change
       3263  CBE 00063A70 date_Get
       3264  CBF 00063AA0 date_Increment
       3265  CC0 00063A00 date_Init
       3266  CC1 00063A80 date_Move
       3267  CC2 00063A50 date_Set
       3268  CC3 0006DBD0 decode_URI
       3269  CC4 0006DC80 decode_URI_duplicate
       3270  CC5 00022D50 demux2_Delete
       3271  CC6 00022DB0 demux2_vaControlHelper
       3272  CC7 00172C60 dmask
       3273  CC8 0010B0FE drand30
       3274  CC9 00131EE0 dvbpsi_AttachDemux
       3275  CCA 00131540 dvbpsi_AttachPAT
       3276  CCB 00130850 dvbpsi_AttachPMT
       3277  CCC 0012FEA0 dvbpsi_AttachSDT
       3278  CCD 00131CE0 dvbpsi_BuildPSISection
       3279  CCE 00131720 dvbpsi_DecodePATSections
       3280  CCF 00130AF0 dvbpsi_DecodePMTSections
       3281  CD0 00130180 dvbpsi_DecodeSDTSections
       3282  CD1 00131310 dvbpsi_DecodeSubtitlingDr
       3283  CD2 00131E80 dvbpsi_DeleteDescriptors
       3284  CD3 00131C20 dvbpsi_DeletePSISections
       3285  CD4 00131F90 dvbpsi_Demux
       3286  CD5 00132020 dvbpsi_DetachDemux
       3287  CD6 001315E0 dvbpsi_DetachPAT
       3288  CD7 001308F0 dvbpsi_DetachPMT
       3289  CD8 0012FF90 dvbpsi_DetachSDT
       3290  CD9 00131680 dvbpsi_EmptyPAT
       3291  CDA 00130990 dvbpsi_EmptyPMT
       3292  CDB 00130070 dvbpsi_EmptySDT
       3293  CDC 00131790 dvbpsi_GatherPATSections
       3294  CDD 00130C50 dvbpsi_GatherPMTSections
       3295  CDE 00130290 dvbpsi_GatherSDTSections
       3296  CDF 00131A70 dvbpsi_GenPATSections
       3297  CE0 00130F40 dvbpsi_GenPMTSections
       3298  CE1 00130570 dvbpsi_GenSDTSections
       3299  CE2 00131450 dvbpsi_GenSubtitlingDr
       3300  CE3 00131650 dvbpsi_InitPAT
       3301  CE4 00130960 dvbpsi_InitPMT
       3302  CE5 00130040 dvbpsi_InitSDT
       3303  CE6 00131DF0 dvbpsi_NewDescriptor
       3304  CE7 00131BD0 dvbpsi_NewPSISection
       3305  CE8 001316C0 dvbpsi_PATAddProgram
       3306  CE9 001309F0 dvbpsi_PMTAddDescriptor
       3307  CEA 00130A40 dvbpsi_PMTAddES
       3308  CEB 00130AA0 dvbpsi_PMTESAddDescriptor
       3309  CEC 001300B0 dvbpsi_SDTAddService
       3310  CED 00130130 dvbpsi_SDTServiceAddDescriptor
       3311  CEE 00131C70 dvbpsi_ValidPSISection
       3312  CEF 00131F60 dvbpsi_demuxGetSubDec
       3313  CF0 0006DD40 encode_URI_component
       3314  CF1 0009D2A0 fast_memcpy__memcpy3dn
       3315  CF2 00096BD0 fast_memcpy__memcpymmx
       3316  CF3 0009CA60 fast_memcpy__memcpymmxext
       3317  CF4 00096B10 getopt
       3318  CF5 00096B50 getopt_long
       3319  CF6 00096B90 getopt_long_only
       3320  CF7 00172C64 hs
       3321  CF8 0005BED0 httpd_ClientIP
       3322  CF9 0005E520 httpd_ClientModeBidir
       3323  CFA 0005C290 httpd_ClientModeStream
       3324  CFB 0005EAC0 httpd_FileDelete
       3325  CFC 0005D860 httpd_FileNew
       3326  CFD 0005EAA0 httpd_HandlerDelete
       3327  CFE 0005D640 httpd_HandlerNew
       3328  CFF 0005EB00 httpd_HostDelete
       3329  D00 0005CCC0 httpd_HostNew
       3330  D01 0005DCB0 httpd_MsgAdd
       3331  D02 0005DB60 httpd_MsgClean
       3332  D03 0005BDE0 httpd_MsgGet
       3333  D04 0005DAE0 httpd_MsgInit
       3334  D05 0005EA70 httpd_RedirectDelete
       3335  D06 0005D390 httpd_RedirectNew
       3336  D07 0005E530 httpd_ServerIP
       3337  D08 0005E9E0 httpd_StreamDelete
       3338  D09 0005C2A0 httpd_StreamHeader
       3339  D0A 0005D120 httpd_StreamNew
       3340  D0B 0005C350 httpd_StreamSend
       3341  D0C 0005C4A0 httpd_TLSHostNew
       3342  D0D 0005BE40 httpd_UrlCatch
       3343  D0E 0005E5C0 httpd_UrlDelete
       3344  D0F 0005DAA0 httpd_UrlNew
       3345  D10 0005D0D0 httpd_UrlNewUnique
       3346  D11 00172C70 huffdec
       3347  D12 00062990 i18n_atof
       3348  D13 000628D0 i18n_strtod
       3349  D14 002778D0 i_slen2
       3350  D15 00074760 image_HandlerDelete
       3351  D16 00059F50 inet_pton
       3352  D17 000D91D0 initializeWinsockIfNecessary
       3353  D18 0002D6E0 input_AddSubtitles
       3354  D19 0001D590 input_ClockGetTS
       3355  D1A 0001CED0 input_ClockInit
       3356  D1B 0001CF50 input_ClockSetPCR
       3357  D1C 00036530 input_ConfigVarInit
       3358  D1D 0001F130 input_Control
       3359  D1E 00035DB0 input_ControlVarClean
       3360  D1F 00035530 input_ControlVarInit
       3361  D20 00035F90 input_ControlVarNavigation
       3362  D21 000362E0 input_ControlVarTitle
       3363  D22 00020F50 input_DecoderDecode
       3364  D23 00021B30 input_DecoderDelete
       3365  D24 000210A0 input_DecoderDiscontinuity
       3366  D25 0001F1A0 input_DecoderEmpty
       3367  D26 00021CE0 input_DecoderNew
       3368  D27 0001F1D0 input_DecoderPreroll
       3369  D28 000283D0 input_DestroyThread
       3370  D29 00023F30 input_EsOutDecodersEmpty
       3371  D2A 00023A90 input_EsOutDelete
       3372  D2B 00023E90 input_EsOutDiscontinuity
       3373  D2C 00023D80 input_EsOutGetFromID
       3374  D2D 00026AD0 input_EsOutNew
       3375  D2E 00023F00 input_EsOutSetDelay
       3376  D2F 00028270 input_StopThread
       3377  D30 0001D8D0 input_vaControl
       3378  D31 0000FD80 intf_Destroy
       3379  D32 00010930 intf_InteractionDestroy
       3380  D33 00011260 intf_InteractionManage
       3381  D34 00010260 intf_RunThread
       3382  D35 0000FD40 intf_StopThread
       3383  D36 000D74DC libiconv
       3384  D37 000D7536 libiconv_close
       3385  D38 000D6FD8 libiconv_open
       3386  D39 000D7A09 libiconv_relocate
       3387  D3A 000D79F0 libiconv_set_relocation_prefix
       3388  D3B 000D7557 libiconvctl
       3389  D3C 000D76FF libiconvlist
       3390  D3D 000BB744 libintl_bind_textdomain_codeset
       3391  D3E 000BB725 libintl_bindtextdomain
       3392  D3F 000BE890 libintl_dcgettext
       3393  D40 000BBA66 libintl_dcigettext
       3394  D41 000BB770 libintl_dgettext
       3395  D42 000BFBE0 libintl_gettext_extract_plural
       3396  D43 000C1A5F libintl_gettext_free_exp
       3397  D44 00172970 libintl_gettext_germanic_plural
       3398  D45 000C1203 libintl_gettextparse
       3399  D46 00172960 libintl_nl_current_default_domain
       3400  D47 00190300 libintl_nl_default_default_domain
       3401  D48 00190320 libintl_nl_default_dirname
       3402  D49 0027D9B0 libintl_nl_domain_bindings
       3403  D4A 000C1DFA libintl_relocate
       3404  D4B 000C1DD0 libintl_set_relocation_prefix
       3405  D4C 00092880 libvlc_audio_get_mute
       3406  D4D 00092840 libvlc_audio_get_volume
       3407  D4E 000928C0 libvlc_audio_set_mute
       3408  D4F 00092920 libvlc_audio_set_volume
       3409  D50 00092820 libvlc_audio_toggle_mute
       3410  D51 0008F530 libvlc_destroy
       3411  D52 0008F370 libvlc_exception_clear
       3412  D53 0008F3D0 libvlc_exception_get_message
       3413  D54 0008F350 libvlc_exception_init
       3414  D55 0008F3F0 libvlc_exception_raise
       3415  D56 0008F3B0 libvlc_exception_raised
       3416  D57 00091770 libvlc_get_fullscreen
       3417  D58 00090D90 libvlc_get_input_thread
       3418  D59 0008F590 libvlc_get_log_verbosity
       3419  D5A 0008F580 libvlc_get_vlc_id
       3420  D5B 00090D70 libvlc_input_free
       3421  D5C 000911E0 libvlc_input_get_fps
       3422  D5D 00090DE0 libvlc_input_get_length
       3423  D5E 00091140 libvlc_input_get_position
       3424  D5F 00091490 libvlc_input_get_rate
       3425  D60 00091540 libvlc_input_get_state
       3426  D61 00090EC0 libvlc_input_get_time
       3427  D62 00091D00 libvlc_input_has_vout
       3428  D63 00091080 libvlc_input_set_position
       3429  D64 00091360 libvlc_input_set_rate
       3430  D65 00090FA0 libvlc_input_set_time
       3431  D66 000912C0 libvlc_input_will_play
       3432  D67 0008F720 libvlc_log_clear
       3433  D68 0008F680 libvlc_log_close
       3434  D69 0008F6D0 libvlc_log_count
       3435  D6A 0008F7D0 libvlc_log_get_iterator
       3436  D6B 0008F8E0 libvlc_log_iterator_free
       3437  D6C 0008F910 libvlc_log_iterator_has_next
       3438  D6D 0008F950 libvlc_log_iterator_next
       3439  D6E 0008F610 libvlc_log_open
       3440  D6F 0008F470 libvlc_new
       3441  D70 0008FDA0 libvlc_playlist_add
       3442  D71 0008FD40 libvlc_playlist_add_extended
       3443  D72 0008FC90 libvlc_playlist_clear
       3444  D73 0008FE00 libvlc_playlist_delete_item
       3445  D74 0008FEB0 libvlc_playlist_get_input
       3446  D75 0008FE10 libvlc_playlist_isplaying
       3447  D76 0008FEA0 libvlc_playlist_items_count
       3448  D77 0008FCA0 libvlc_playlist_next
       3449  D78 0008FBF0 libvlc_playlist_pause
       3450  D79 0008FAA0 libvlc_playlist_play
       3451  D7A 0008FCF0 libvlc_playlist_prev
       3452  D7B 0008FC40 libvlc_playlist_stop
       3453  D7C 00091620 libvlc_set_fullscreen
       3454  D7D 0008F5D0 libvlc_set_log_verbosity
       3455  D7E 00091860 libvlc_toggle_fullscreen
       3456  D7F 00092750 libvlc_video_destroy
       3457  D80 00092510 libvlc_video_get_aspect_ratio
       3458  D81 00091B70 libvlc_video_get_height
       3459  D82 00091C30 libvlc_video_get_width
       3460  D83 00091DA0 libvlc_video_reparent
       3461  D84 00091E80 libvlc_video_resize
       3462  D85 00092610 libvlc_video_set_aspect_ratio
       3463  D86 00091F90 libvlc_video_set_parent
       3464  D87 000920B0 libvlc_video_set_size
       3465  D88 000921F0 libvlc_video_set_viewport
       3466  D89 000919A0 libvlc_video_take_snapshot
       3467  D8A 000904A0 libvlc_vlm_add_broadcast
       3468  D8B 00090940 libvlc_vlm_add_input
       3469  D8C 00090240 libvlc_vlm_change_media
       3470  D8D 0008FFF0 libvlc_vlm_del_media
       3471  D8E 00090C70 libvlc_vlm_pause_media
       3472  D8F 00090AD0 libvlc_vlm_play_media
       3473  D90 000900C0 libvlc_vlm_set_enabled
       3474  D91 00090770 libvlc_vlm_set_input
       3475  D92 00090180 libvlc_vlm_set_loop
       3476  D93 000905C0 libvlc_vlm_set_output
       3477  D94 00090BA0 libvlc_vlm_stop_media
       3478  D95 000BFD08 locale_charset
       3479  D96 001729A4 loopbackWorks
       3480  D97 00063740 mdate
       3481  D98 00093AA0 mediacontrol_PlaylistSeq__alloc
       3482  D99 00093AF0 mediacontrol_PlaylistSeq__free
       3483  D9A 00093A30 mediacontrol_RGBPicture__alloc
       3484  D9B 00093A70 mediacontrol_RGBPicture__free
       3485  D9C 00094070 mediacontrol_all_snapshots
       3486  D9D 00094240 mediacontrol_display_text
       3487  D9E 00093B70 mediacontrol_exception_free
       3488  D9F 00093B40 mediacontrol_exception_init
       3489  DA0 000946C0 mediacontrol_get_fullscreen
       3490  DA1 00092A60 mediacontrol_get_media_position
       3491  DA2 000945B0 mediacontrol_get_rate
       3492  DA3 000932E0 mediacontrol_get_stream_information
       3493  DA4 00092980 mediacontrol_new_from_object
       3494  DA5 00092E10 mediacontrol_pause
       3495  DA6 00092FA0 mediacontrol_playlist_add_item
       3496  DA7 00093080 mediacontrol_playlist_clear
       3497  DA8 000930E0 mediacontrol_playlist_get_list
       3498  DA9 00093020 mediacontrol_playlist_next_item
       3499  DAA 00093660 mediacontrol_position2microsecond
       3500  DAB 00092EA0 mediacontrol_resume
       3501  DAC 00094780 mediacontrol_set_fullscreen
       3502  DAD 00092B80 mediacontrol_set_media_position
       3503  DAE 00094630 mediacontrol_set_rate
       3504  DAF 00094550 mediacontrol_set_visual
       3505  DB0 000940A0 mediacontrol_showtext
       3506  DB1 00093C70 mediacontrol_snapshot
       3507  DB2 000944B0 mediacontrol_sound_get_volume
       3508  DB3 00094500 mediacontrol_sound_set_volume
       3509  DB4 00092C30 mediacontrol_start
       3510  DB5 00092F30 mediacontrol_stop
       3511  DB6 00093510 mediacontrol_unit_convert
       3512  DB7 000781D0 msg_GetObjectTypeName
       3513  DB8 00063960 msleep
       3514  DB9 00063450 mstrtime
       3515  DBA 000639A0 mwait
       3516  DBB 002770D0 n_slen2
       3517  DBC 00059340 net_Close
       3518  DBD 0005B4C0 net_ListenClose
       3519  DBE 00059EE0 net_Printf
       3520  DBF 000591E0 net_Socket
       3521  DC0 0005A040 net_strerror
       3522  DC1 0026A414 optarg
       3523  DC2 00171D84 opterr
       3524  DC3 00171D88 optind
       3525  DC4 00171D80 optopt
       3526  DC5 00054EF0 osd_ConfigLoader
       3527  DC6 00056270 osd_ConfigUnload
       3528  DC7 000578C0 osd_Icon
       3529  DC8 00056890 osd_Message
       3530  DC9 000566A0 osd_ShowTextAbsolute
       3531  DCA 00056820 osd_ShowTextRelative
       3532  DCB 00057150 osd_Slider
       3533  DCC 0012EB18 ourMD5Update
       3534  DCD 0012ED61 our_MD5Data
       3535  DCE 0012EC50 our_MD5End
       3536  DCF 0012ECC9 our_MD5File
       3537  DD0 0012EBD4 our_MD5Final
       3538  DD1 0012EAE7 our_MD5Init
       3539  DD2 000D9258 our_gethostbyname
       3540  DD3 000D91B0 our_inet_addr
       3541  DD4 000D91C0 our_inet_ntoa
       3542  DD5 000D9313 our_initstate
       3543  DD6 000D955F our_random
       3544  DD7 000D95E8 our_random32
       3545  DD8 000D947A our_setstate
       3546  DD9 000D927D our_srandom
       3547  DDA 0001A1B0 playlist_Add
       3548  DDB 0001A060 playlist_AddExt
       3549  DDC 0001CAC0 playlist_AddSDModules
       3550  DDD 00017F50 playlist_ChildSearchName
       3551  DDE 0001B740 playlist_Clear
       3552  DDF 000134C0 playlist_Control
       3553  DE0 00019530 playlist_CopyParents
       3554  DE1 0001B250 playlist_Delete
       3555  DE2 00012C40 playlist_Destroy
       3556  DE3 0001BC00 playlist_Disable
       3557  DE4 0001BCA0 playlist_Enable
       3558  DE5 00016400 playlist_Export
       3559  DE6 000180B0 playlist_FindDirectParent
       3560  DE7 000183B0 playlist_FindNextFromParent
       3561  DE8 000189A0 playlist_FindPrevFromParent
       3562  DE9 0001A7C0 playlist_GetPositionById
       3563  DEA 000161A0 playlist_Import
       3564  DEB 0001C8B0 playlist_IsServicesDiscoveryLoaded
       3565  DEC 000199F0 playlist_ItemAdd
       3566  DED 00019320 playlist_ItemAddOption
       3567  DEE 000193D0 playlist_ItemAddParent
       3568  DEF 000152E0 playlist_ItemArraySort
       3569  DF0 000190E0 playlist_ItemDelete
       3570  DF1 0001A980 playlist_ItemGetById
       3571  DF2 0001AB10 playlist_ItemGetByInput
       3572  DF3 0001A880 playlist_ItemGetByPos
       3573  DF4 00019810 playlist_ItemNewWithType
       3574  DF5 00019730 playlist_ItemSetDuration
       3575  DF6 000196E0 playlist_ItemSetName
       3576  DF7 0001ADD0 playlist_ItemToNode
       3577  DF8 000162D0 playlist_Load
       3578  DF9 0001B970 playlist_LockClear
       3579  DFA 00013420 playlist_LockControl
       3580  DFB 0001B6B0 playlist_LockDelete
       3581  DFC 0001AA10 playlist_LockItemGetById
       3582  DFD 0001AC40 playlist_LockItemGetByInput
       3583  DFE 0001A8D0 playlist_LockItemGetByPos
       3584  DFF 0001AED0 playlist_LockItemToNode
       3585  E00 0001B100 playlist_LockReplace
       3586  E01 0001BD40 playlist_Move
       3587  E02 0001A250 playlist_NodeAddItem
       3588  E03 00017980 playlist_NodeAppend
       3589  E04 00016630 playlist_NodeChildrenCount
       3590  E05 000179C0 playlist_NodeCreate
       3591  E06 000168D0 playlist_NodeDelete
       3592  E07 00016D10 playlist_NodeEmpty
       3593  E08 00015BC0 playlist_NodeGroup
       3594  E09 00017740 playlist_NodeInsert
       3595  E0A 00016820 playlist_NodeRemoveItem
       3596  E0B 00017E50 playlist_NodeRemoveParent
       3597  E0C 000159B0 playlist_NodeSort
       3598  E0D 000134F0 playlist_PreparseEnqueue
       3599  E0E 00013680 playlist_PreparseEnqueueItem
       3600  E0F 000135D0 playlist_PreparseEnqueueItemSub
       3601  E10 000125B0 playlist_RecursiveFindLast
       3602  E11 000181A0 playlist_RecursiveFindNext
       3603  E12 00018630 playlist_RecursiveFindPrev
       3604  E13 000159F0 playlist_RecursiveNodeSort
       3605  E14 0001B030 playlist_Replace
       3606  E15 0001C350 playlist_ServicesDiscoveryAdd
       3607  E16 0001C500 playlist_ServicesDiscoveryRemove
       3608  E17 00015A80 playlist_Sort
       3609  E18 0001C090 playlist_TreeMove
       3610  E19 00017C20 playlist_ViewCreate
       3611  E1A 00017680 playlist_ViewDelete
       3612  E1B 00016620 playlist_ViewDump
       3613  E1C 00016F10 playlist_ViewEmpty
       3614  E1D 00016710 playlist_ViewFind
       3615  E1E 00017CE0 playlist_ViewInsert
       3616  E1F 000166A0 playlist_ViewItemCount
       3617  E20 00017260 playlist_ViewUpdate
       3618  E21 00013110 playlist_vaControl
       3619  E22 0006DE40 resolve_xml_special_chars
       3620  E23 00061D60 rootwrap
       3621  E24 00061D70 rootwrap_bind
       3622  E25 0010B130 rtcp_interval
       3623  E26 00063670 secstotimestr
       3624  E27 000825A0 size_str
       3625  E28 0004EED0 sout_AccessOutDelete
       3626  E29 00050150 sout_AccessOutNew
       3627  E2A 0004EF90 sout_AccessOutRead
       3628  E2B 0004EF80 sout_AccessOutSeek
       3629  E2C 0004EFB0 sout_AccessOutWrite
       3630  E2D 00051230 sout_AnnounceMethodCreate
       3631  E2E 00051710 sout_AnnounceRegister
       3632  E2F 00051470 sout_AnnounceRegisterSDP
       3633  E30 00050F80 sout_AnnounceSessionCreate
       3634  E31 00051170 sout_AnnounceSessionDestroy
       3635  E32 00051060 sout_AnnounceUnRegister
       3636  E33 0004F880 sout_CfgCreate
       3637  E34 0004EDA0 sout_DeleteInstance
       3638  E35 0004EA60 sout_InputDelete
       3639  E36 0004E930 sout_InputNew
       3640  E37 0004EB30 sout_InputSendBuffer
       3641  E38 0004F1F0 sout_MuxAddStream
       3642  E39 0004F140 sout_MuxDelete
       3643  E3A 0004F420 sout_MuxDeleteStream
       3644  E3B 0004FED0 sout_MuxNew
       3645  E3C 0004F670 sout_MuxSendBuffer
       3646  E3D 0004EC50 sout_StreamDelete
       3647  E3E 0004FDB0 sout_StreamNew
       3648  E3F 0003F9B0 spu_Attach
       3649  E40 000402B0 spu_CreateSubpicture
       3650  E41 0003FEE0 spu_Destroy
       3651  E42 0003FD60 spu_DestroySubpicture
       3652  E43 00040210 spu_DisplaySubpicture
       3653  E44 0003F590 spu_Init
       3654  E45 00040490 spu_RenderSubpictures
       3655  E46 00041480 spu_SortSubpictures
       3656  E47 0006C8F0 stats_ComputeInputStats
       3657  E48 0006B7A0 stats_DumpInputStats
       3658  E49 0006B470 stats_HandlerDestroy
       3659  E4A 0006B880 stats_ReinitGlobalStats
       3660  E4B 0006B730 stats_ReinitInputStats
       3661  E4C 0013EEF0 strcasecmp
       3662  E4D 00031CB0 stream_AccessNew
       3663  E4E 00031B80 stream_AccessReset
       3664  E4F 0002FFF0 stream_AccessUpdate
       3665  E50 00023460 stream_DemuxDelete
       3666  E51 00023430 stream_DemuxSend
       3667  E52 00033930 stream_ReadLine
       3668  E53 00034480 subtitles_Detect
       3669  E54 00034410 subtitles_Filter
       3670  E55 00094A20 system_Configure
       3671  E56 000949D0 system_End
       3672  E57 00094850 system_Init
       3673  E58 00062150 tls_ClientCreate
       3674  E59 00062220 tls_ClientDelete
       3675  E5A 00062060 tls_ServerCreate
       3676  E5B 00062120 tls_ServerDelete
       3677  E5C 0006D970 unescape_URI
       3678  E5D 0006DA90 unescape_URI_duplicate
       3679  E5E 000816E0 update_Check
       3680  E5F 0007FD70 update_Delete
       3681  E60 000824D0 update_download
       3682  E61 00082660 update_download_for_real
       3683  E62 00082360 update_iterator_Action
       3684  E63 00081AB0 update_iterator_ChooseMirrorAndFile
       3685  E64 000817F0 update_iterator_ClearData
       3686  E65 000818B0 update_iterator_Delete
       3687  E66 00081920 update_iterator_GetData
       3688  E67 00081730 update_iterator_New
       3689  E68 00082060 update_iterator_NextFile
       3690  E69 00081D00 update_iterator_NextMirror
       3691  E6A 00081D90 update_iterator_PrevFile
       3692  E6B 00081C70 update_iterator_PrevMirror
       3693  E6C 000818E0 update_iterator_Reset
       3694  E6D 00062AE0 us_atof
       3695  E6E 00062A50 us_strtod
       3696  E6F 0006E490 utf8_fopen
       3697  E70 0006ED70 utf8_fprintf
       3698  E71 0006ECC0 utf8_lstat
       3699  E72 0006E5C0 utf8_mkdir
       3700  E73 0006E800 utf8_opendir
       3701  E74 0006E860 utf8_readdir
       3702  E75 0006E8A0 utf8_scandir
       3703  E76 0006ECA0 utf8_stat
       3704  E77 0006ECE0 utf8_vfprintf
       3705  E78 000A3BC0 var_buffer_add16
       3706  E79 000A3C70 var_buffer_add32
       3707  E7A 000A3DE0 var_buffer_add64
       3708  E7B 000A3B50 var_buffer_add8
       3709  E7C 000A4160 var_buffer_addUTF16
       3710  E7D 000A40D0 var_buffer_addmemory
       3711  E7E 000A42A0 var_buffer_free
       3712  E7F 000A4320 var_buffer_get16
       3713  E80 000A4380 var_buffer_get32
       3714  E81 000A43C0 var_buffer_get64
       3715  E82 000A4300 var_buffer_get8
       3716  E83 000A4540 var_buffer_getguid
       3717  E84 000A4430 var_buffer_getmemory
       3718  E85 000A42E0 var_buffer_initread
       3719  E86 000A3A60 var_buffer_initwrite
       3720  E87 000A4520 var_buffer_readempty
       3721  E88 000A3AC0 var_buffer_reinitwrite
       3722  E89 0008CFF0 vlc_HashInsert
       3723  E8A 0008D2F0 vlc_HashLookup
       3724  E8B 0008DAA0 vlc_HashRetrieve
       3725  E8C 0008E100 vlc_alphasort
       3726  E8D 0008DD00 vlc_asprintf
       3727  E8E 0008E0B0 vlc_closedir_wrapper
       3728  E8F 00062250 vlc_current_charset
       3729  E90 0000B6D0 vlc_current_object
       3730  E91 0008E470 vlc_dgettext
       3731  E92 00097380 vlc_entry__i420_rgb_mmx
       3732  E93 00099DD0 vlc_entry__i420_ymga_mmx
       3733  E94 0009A610 vlc_entry__i420_yuy2_mmx
       3734  E95 00098B30 vlc_entry__i422_yuy2_mmx
       3735  E96 0009DB30 vlc_entry__live555
       3736  E97 00001180 vlc_entry__main
       3737  E98 0009D8F0 vlc_entry__memcpy3dn
       3738  E99 00097190 vlc_entry__memcpymmx
       3739  E9A 0009D0B0 vlc_entry__memcpymmxext
       3740  E9B 000A4680 vlc_entry__mux_ts
       3741  E9C 000B9B50 vlc_entry__quicktime
       3742  E9D 0007FA30 vlc_error
       3743  E9E 000586D0 vlc_freeaddrinfo
       3744  E9F 00058690 vlc_gai_strerror
       3745  EA0 00058A30 vlc_getaddrinfo
       3746  EA1 00058780 vlc_getnameinfo
       3747  EA2 0008E5D0 vlc_iconv
       3748  EA3 0008E5E0 vlc_iconv_close
       3749  EA4 0008E5C0 vlc_iconv_open
       3750  EA5 0002D390 vlc_input_item_AddInfo
       3751  EA6 0002D210 vlc_input_item_GetInfo
       3752  EA7 0007BDB0 vlc_list_release
       3753  EA8 0008DEF0 vlc_opendir_wrapper
       3754  EA9 0008EA50 vlc_parse_cmdline
       3755  EAA 0008DF90 vlc_readdir_wrapper
       3756  EAB 0008E120 vlc_scandir
       3757  EAC 0008DBA0 vlc_strcasestr
       3758  EAD 0008DDA0 vlc_strlcpy
       3759  EAE 0008DB40 vlc_strndup
       3760  EAF 0008E5F0 vlc_ureduce
       3761  EB0 0008DC60 vlc_vasprintf
       3762  EB1 0008E480 vlc_wraptext
       3763  EB2 00085820 vlm_Delete
       3764  EB3 0008BE30 vlm_ExecuteCommand
       3765  EB4 0008BB40 vlm_Load
       3766  EB5 000841A0 vlm_MediaControl
       3767  EB6 00085270 vlm_MediaDelete
       3768  EB7 00082EE0 vlm_MediaNew
       3769  EB8 00082CB0 vlm_MediaSearch
       3770  EB9 00083400 vlm_MediaSetup
       3771  EBA 0008C2D0 vlm_MediaVodControl
       3772  EBB 00082C30 vlm_MessageDelete
       3773  EBC 00087290 vlm_Save
       3774  EBD 00083170 vlm_ScheduleDelete
       3775  EBE 00082E10 vlm_ScheduleNew
       3776  EBF 000859E0 vlm_ScheduleSetup
       3777  EC0 0003EEA0 vout_ChromaCmp
       3778  EC1 000431C0 vout_ControlWindow
       3779  EC2 0003E900 vout_CreatePicture
       3780  EC3 0003C4C0 vout_DatePicture
       3781  EC4 000391F0 vout_Destroy
       3782  EC5 0003C5D0 vout_DestroyPicture
       3783  EC6 0003C3E0 vout_DisplayPicture
       3784  EC7 0003CF90 vout_InitFormat
       3785  EC8 00043950 vout_IntfInit
       3786  EC9 0003C670 vout_LinkPicture
       3787  ECA 0003F390 vout_OSDIcon
       3788  ECB 0003F2B0 vout_OSDSlider
       3789  ECC 0003CB60 vout_PlacePicture
       3790  ECD 00043080 vout_ReleaseWindow
       3791  ECE 0003D8B0 vout_RenderPicture
       3792  ECF 00044A70 vout_RequestWindow
       3793  ED0 0003EF80 vout_ShowTextAbsolute
       3794  ED1 0003F120 vout_ShowTextRelative
       3795  ED2 00044E30 vout_Snapshot
       3796  ED3 00042070 vout_SynchroChoose
       3797  ED4 000428E0 vout_SynchroDate
       3798  ED5 00042720 vout_SynchroDecode
       3799  ED6 00042750 vout_SynchroEnd
       3800  ED7 00042900 vout_SynchroNewPicture
       3801  ED8 00042030 vout_SynchroRelease
       3802  ED9 00042050 vout_SynchroReset
       3803  EDA 00042700 vout_SynchroTrash
       3804  EDB 0003C710 vout_UnlinkPicture
       3805  EDC 0003BF90 vout_VarCallback
       3806  EDD 000459A0 vout_vaControlDefault
       3807  EDE 0008CF00 xml_Delete

  Summary

       14000 .bss
        9000 .data
       2A000 .edata
        2000 .idata
       F1000 .rdata
        D000 .reloc
      16F000 .text
